; ModuleID = 'alias_access_test.6b61745cbcc566ba-cgu.0'
source_filename = "alias_access_test.6b61745cbcc566ba-cgu.0"
target datalayout = "e-m:e-p270:32:32-p271:32:32-p272:64:64-i64:64-i128:128-f80:128-n8:16:32:64-S128"
target triple = "x86_64-unknown-linux-gnu"

%amice.alias.st = type { [8 x i8], [16 x i8] }
%amice.alias.st.0 = type { [8 x i8] }
%amice.alias.st.1 = type { [8 x i8] }
%amice.alias.st.2 = type { [8 x i8], [8 x i8] }
%amice.alias.st.3 = type { [8 x i8] }
%amice.alias.st.4 = type { [8 x i8] }
%amice.alias.st.5 = type { [8 x i8] }
%amice.alias.st.6 = type { [8 x i8] }
%amice.alias.st.7 = type { [8 x i8], [8 x i8] }
%amice.alias.st.8 = type { [8 x i8] }
%amice.alias.st.9 = type { [8 x i8] }
%amice.alias.st.10 = type { [8 x i8], [8 x i8] }
%amice.alias.st.11 = type { [8 x i8] }
%amice.alias.st.12 = type { [8 x i8] }
%amice.alias.st.13 = type { [8 x i8], [8 x i8] }
%amice.alias.st.14 = type { [8 x i8], [8 x i8] }
%amice.alias.st.15 = type { [8 x i8], [8 x i8] }
%amice.alias.st.16 = type { [1 x i8] }
%amice.alias.st.17 = type { [8 x i8], [8 x i8] }
%amice.alias.st.18 = type { [8 x i8] }
%amice.alias.st.19 = type { [8 x i8] }
%amice.alias.st.20 = type { [4 x i8] }
%amice.alias.st.21 = type { [1 x i8] }
%amice.alias.st.22 = type { [16 x i8], [16 x i8], [8 x i8] }
%amice.alias.st.23 = type { [16 x i8], [4 x i8] }
%amice.alias.st.24 = type { [1 x i8] }
%amice.alias.st.25 = type { [16 x i8], [8 x i8] }
%amice.alias.st.26 = type { [0 x i8], [0 x i8] }
%amice.alias.st.27 = type { [8 x i8] }
%amice.alias.st.28 = type { [1 x i8], [8 x i8] }
%amice.alias.st.29 = type { [8 x i8], [0 x i8] }
%amice.alias.st.30 = type { [32 x i8] }
%amice.alias.st.31 = type { [4 x i8] }
%amice.alias.st.32 = type { [4 x i8] }
%amice.alias.st.33 = type { [4 x i8] }
%amice.alias.st.34 = type { [8 x i8], [16 x i8], [16 x i8] }
%amice.alias.st.35 = type { [16 x i8], [16 x i8], [16 x i8] }
%amice.alias.st.36 = type { [8 x i8], [16 x i8] }
%amice.alias.st.37 = type { [8 x i8], [4 x i8], [16 x i8], [16 x i8] }
%amice.alias.st.38 = type { [8 x i8] }
%amice.alias.st.39 = type { [12 x i8] }
%amice.alias.st.40 = type { [4 x i8], [4 x i8], [4 x i8] }
%amice.alias.st.41 = type { [4 x i8], [4 x i8] }
%amice.alias.st.42 = type { [4 x i8] }
%amice.alias.st.43 = type { [4 x i8] }
%amice.alias.st.44 = type { [4 x i8] }
%amice.alias.st.45 = type { [4 x i8] }
%amice.alias.st.46 = type { [12 x i8] }
%amice.alias.st.47 = type { [4 x i8], [4 x i8] }
%amice.alias.st.48 = type { [8 x i8], [12 x i8] }
%amice.alias.st.49 = type { [12 x i8] }
%amice.alias.st.50 = type { [4 x i8], [4 x i8] }
%amice.alias.st.51 = type { [4 x i8] }
%amice.alias.st.52 = type { [4 x i8], [4 x i8], [4 x i8] }
%amice.alias.st.53 = type { [4 x i8] }
%amice.alias.st.54 = type { [4 x i8], [8 x i8] }
%amice.alias.st.55 = type { [4 x i8], [4 x i8] }
%amice.alias.st.56 = type { [4 x i8] }
%amice.alias.st.57 = type { [4 x i8] }
%amice.alias.st.58 = type { [4 x i8], [4 x i8] }
%amice.alias.st.59 = type { [4 x i8], [4 x i8] }
%amice.alias.st.60 = type { [4 x i8], [4 x i8], [4 x i8] }
%amice.alias.st.61 = type { [4 x i8], [4 x i8] }
%amice.alias.st.62 = type { [4 x i8] }
%amice.alias.st.63 = type { [4 x i8], [4 x i8] }
%amice.alias.st.64 = type { [4 x i8], [4 x i8] }
%amice.alias.st.65 = type { [4 x i8] }
%amice.alias.st.66 = type { [4 x i8] }
%amice.alias.st.67 = type { [4 x i8] }
%amice.alias.st.68 = type { [4 x i8] }
%amice.alias.st.69 = type { [4 x i8] }
%amice.alias.st.70 = type { [4 x i8], [4 x i8] }
%amice.alias.st.71 = type { [4 x i8], [4 x i8] }
%amice.alias.st.72 = type { [4 x i8] }
%amice.alias.st.73 = type { [4 x i8], [4 x i8], [4 x i8] }
%amice.alias.st.74 = type { [4 x i8] }
%amice.alias.st.75 = type { [4 x i8] }
%amice.alias.st.76 = type { [4 x i8] }
%amice.alias.st.77 = type { [4 x i8] }
%amice.alias.st.78 = type { [4 x i8] }
%amice.alias.st.79 = type { [4 x i8] }
%amice.alias.st.80 = type { [4 x i8] }
%amice.alias.st.81 = type { [4 x i8], [4 x i8] }
%amice.alias.st.82 = type { [12 x i8], [12 x i8], [4 x i8] }
%amice.alias.st.83 = type { [12 x i8] }
%amice.alias.st.84 = type { [4 x i8], [4 x i8] }
%amice.alias.st.85 = type { [4 x i8] }
%amice.alias.st.86 = type { [4 x i8] }
%amice.alias.st.87 = type { [4 x i8], [4 x i8], [4 x i8] }
%amice.alias.st.88 = type { [4 x i8] }
%amice.alias.st.89 = type { [4 x i8], [16 x i8], [4 x i8] }
%amice.alias.st.90 = type { [8 x i8] }
%amice.alias.st.91 = type { [4 x i8], [4 x i8] }
%amice.alias.st.92 = type { [16 x i8] }
%amice.alias.st.93 = type { [4 x i8] }
%amice.alias.st.94 = type { [8 x i8], [16 x i8] }
%amice.alias.st.95 = type { [8 x i8], [8 x i8], [64 x i8] }
%amice.alias.st.96 = type { [8 x i8] }
%amice.alias.st.97 = type { [16 x i8], [4 x i8], [16 x i8] }
%amice.alias.st.98 = type { [16 x i8] }
%amice.alias.st.99 = type { [8 x i8] }
%amice.alias.st.100 = type { [1 x i8] }
%amice.alias.st.101 = type { [8 x i8] }
%amice.alias.st.102 = type { [8 x i8], [4 x i8] }
%amice.alias.st.103 = type { [8 x i8], [8 x i8] }
%amice.alias.st.104 = type { [16 x i8] }
%amice.alias.st.105 = type { [16 x i8], [4 x i8] }
%amice.alias.st.106 = type { [8 x i8], [4 x i8] }
%amice.alias.st.107 = type { [16 x i8] }
%amice.alias.st.108 = type { [8 x i8], [20 x i8] }
%amice.alias.st.109 = type { [16 x i8] }
%amice.alias.st.110 = type { [8 x i8], [16 x i8] }
%amice.alias.st.111 = type { [8 x i8], [16 x i8], [16 x i8], [4 x i8], [16 x i8] }
%amice.alias.st.112 = type { [4 x i8] }
%amice.alias.st.113 = type { [8 x i8] }
%amice.alias.st.114 = type { [8 x i8], [8 x i8], [16 x i8], [16 x i8] }
%amice.alias.st.115 = type { [1 x i8], [8 x i8] }
%amice.alias.st.116 = type { [8 x i8], [16 x i8] }
%amice.alias.st.117 = type { [8 x i8], [1 x i8] }
%amice.alias.st.118 = type { [8 x i8], [16 x i8], [16 x i8] }
%amice.alias.st.119 = type { [8 x i8] }
%amice.alias.st.120 = type { [16 x i8] }
%amice.alias.st.121 = type { [8 x i8], [16 x i8] }
%amice.alias.st.122 = type { [1 x i8] }
%amice.alias.st.123 = type { [4 x i8] }
%amice.alias.st.124 = type { [4 x i8] }
%amice.alias.st.125 = type { [1 x i8], [4 x i8] }
%amice.alias.st.126 = type { [16 x i8] }
%amice.alias.st.127 = type { [4 x i8], [16 x i8] }
%amice.alias.st.128 = type { [8 x i8], [8 x i8] }
%amice.alias.st.129 = type { [16 x i8], [4 x i8] }
%amice.alias.st.130 = type { [8 x i8] }
%amice.alias.st.131 = type { [1 x i8], [4 x i8] }
%amice.alias.st.132 = type { [16 x i8] }
%amice.alias.st.133 = type { [16 x i8] }
%amice.alias.st.134 = type { [8 x i8], [8 x i8] }
%amice.alias.st.135 = type { [1 x i8], [8 x i8] }
%amice.alias.st.136 = type { [1 x i8] }
%amice.alias.st.137 = type { [8 x i8], [8 x i8] }
%amice.alias.st.138 = type { [1 x i8] }
%amice.alias.st.139 = type { [8 x i8], [8 x i8] }
%amice.alias.st.140 = type { [16 x i8], [4 x i8] }
%amice.alias.st.141 = type { [16 x i8] }
%amice.alias.st.142 = type { [8 x i8], [4 x i8] }
%amice.alias.st.143 = type { [16 x i8] }
%amice.alias.st.144 = type { [16 x i8], [16 x i8] }
%amice.alias.st.145 = type { [8 x i8], [8 x i8] }
%amice.alias.st.146 = type { [1 x i8], [8 x i8], [16 x i8] }
%amice.alias.st.147 = type { [8 x i8], [1 x i8], [16 x i8] }
%amice.alias.st.148 = type { [8 x i8], [8 x i8] }
%amice.alias.st.149 = type { [16 x i8] }
%amice.alias.st.150 = type { [8 x i8], [4 x i8] }
%"core::fmt::rt::Argument<'_>" = type { %"core::fmt::rt::ArgumentType<'_>" }
%"core::fmt::rt::ArgumentType<'_>" = type { ptr, [1 x i64] }
%amice.alias.st.151 = type { [4 x i8] }
%amice.alias.st.152 = type { [1 x i8] }
%amice.alias.st.153 = type { [8 x i8] }
%amice.alias.st.154 = type { [4 x i8] }
%amice.alias.st.155 = type { [1 x i8] }
%amice.alias.st.156 = type { [8 x i8] }
%amice.alias.st.157 = type { [16 x i8] }
%amice.alias.st.158 = type { [4 x i8] }
%amice.alias.st.159 = type { [4 x i8] }
%amice.alias.st.160 = type { [16 x i8], [8 x i8] }
%amice.alias.st.161 = type { [8 x i8] }
%amice.alias.st.162 = type { [16 x i8] }
%amice.alias.st.163 = type { [16 x i8] }
%amice.alias.st.164 = type { [8 x i8] }
%amice.alias.st.168 = type { [8 x i8] }
%amice.alias.st.169 = type { [8 x i8], [8 x i8], [8 x i8], [8 x i8] }
%amice.alias.st.170 = type { [8 x i8] }
%amice.alias.st.183 = type { [8 x i8] }
%amice.alias.st.184 = type { [8 x i8] }
%amice.alias.st.171 = type { [16 x i8] }
%amice.alias.st.172 = type { [8 x i8], [8 x i8] }
%amice.alias.st.166 = type { [8 x i8] }
%amice.alias.st.167 = type { [8 x i8] }
%amice.alias.st.173 = type { [4 x i8] }
%amice.alias.st.174 = type { [8 x i8], [8 x i8] }
%amice.alias.st.175 = type { [8 x i8] }
%amice.alias.st.176 = type { [8 x i8] }
%amice.alias.st.177 = type { [8 x i8] }
%amice.alias.st.178 = type { [4 x i8], [4 x i8] }
%amice.alias.st.179 = type { [1 x i8] }
%amice.alias.st.180 = type { [4 x i8], [4 x i8], [8 x i8] }
%amice.alias.st.181 = type { [8 x i8] }
%amice.alias.st.182 = type { [8 x i8] }
%amice.alias.st.185 = type { [0 x i8] }
%amice.alias.st.186 = type { [16 x i8], [8 x i8] }
%amice.alias.st.187 = type { [8 x i8], [8 x i8], [16 x i8] }
%amice.alias.st.188 = type { [8 x i8] }
%amice.alias.st.165 = type { [8 x i8], [8 x i8] }
%amice.alias.st.189 = type { [8 x i8] }
%amice.alias.st.190 = type { [1 x i8], [8 x i8] }
%amice.alias.st.191 = type { [4 x i8] }
%amice.alias.st.192 = type { [4 x i8] }
%amice.alias.st.193 = type { [8 x i8] }
%amice.alias.st.194 = type { [8 x i8], [0 x i8] }
%amice.alias.st.195 = type { [8 x i8] }
%amice.alias.st.196 = type { [16 x i8], [0 x i8] }

@vtable.0 = private constant <{ [24 x i8], ptr, ptr, ptr }> <{ [24 x i8] c"\00\00\00\00\00\00\00\00\08\00\00\00\00\00\00\00\08\00\00\00\00\00\00\00", ptr @_RNSNvYNCINvNtCskEWJ9B2QHD5_3std2rt10lang_startuE0INtNtNtCsiJgtBcGlDou_4core3ops8function6FnOnceuE9call_once6vtableCs9dAga0YNYgM_17alias_access_test, ptr @_RNCINvNtCskEWJ9B2QHD5_3std2rt10lang_startuE0Cs9dAga0YNYgM_17alias_access_test, ptr @_RNCINvNtCskEWJ9B2QHD5_3std2rt10lang_startuE0Cs9dAga0YNYgM_17alias_access_test }>, align 8, !dbg !0
@alloc_9cd20c3e415f4d39f0ceb012cb758628 = private unnamed_addr constant [40 x i8] c"there is no such thing as a release load", align 1
@alloc_3b7b416aab8c37a840854f2465d80826 = private unnamed_addr constant [80 x i8] c"/rustc/8d670b93d40737e1b320fd892c6f169ffa35e49e/library/core/src/sync/atomic.rs\00", align 1
@alloc_769d03960550b0a5999b027019a5b9e9 = private unnamed_addr constant <{ ptr, [16 x i8] }> <{ ptr @alloc_3b7b416aab8c37a840854f2465d80826, [16 x i8] c"O\00\00\00\00\00\00\00\AC\0F\00\00\18\00\00\00" }>, align 8
@alloc_96ab912d0054b46da785b206a96c9a45 = private unnamed_addr constant [49 x i8] c"there is no such thing as an acquire-release load", align 1
@alloc_84e3bcff8ede4356c0613305c7684350 = private unnamed_addr constant <{ ptr, [16 x i8] }> <{ ptr @alloc_3b7b416aab8c37a840854f2465d80826, [16 x i8] c"O\00\00\00\00\00\00\00\AD\0F\00\00\17\00\00\00" }>, align 8
@alloc_bf39103a6db665396aab4632362d9353 = private unnamed_addr constant [42 x i8] c"there is no such thing as an acquire store", align 1
@alloc_be9aaf323d0b1579e81ed3ecf187c5fa = private unnamed_addr constant <{ ptr, [16 x i8] }> <{ ptr @alloc_3b7b416aab8c37a840854f2465d80826, [16 x i8] c"O\00\00\00\00\00\00\00\9D\0F\00\00\18\00\00\00" }>, align 8
@alloc_00c0bce0fa6327f8ec8e69d6d765d508 = private unnamed_addr constant [50 x i8] c"there is no such thing as an acquire-release store", align 1
@alloc_c99bba020f88fe2b9c3b1fdd4ab0cf62 = private unnamed_addr constant <{ ptr, [16 x i8] }> <{ ptr @alloc_3b7b416aab8c37a840854f2465d80826, [16 x i8] c"O\00\00\00\00\00\00\00\9E\0F\00\00\17\00\00\00" }>, align 8
@alloc_806c13c7682962bbd029107620e823a9 = private unnamed_addr constant [12 x i8] c"src/main.rs\00", align 1
@alloc_c3fae52d53fa9b34ea24b3c50fccd463 = private unnamed_addr constant <{ ptr, [16 x i8] }> <{ ptr @alloc_806c13c7682962bbd029107620e823a9, [16 x i8] c"\0B\00\00\00\00\00\00\00G\00\00\00\12\00\00\00" }>, align 8
@alloc_2a7f6dd0ce6ce0ecb13fe619b6a8780b = private unnamed_addr constant <{ ptr, [16 x i8] }> <{ ptr @alloc_806c13c7682962bbd029107620e823a9, [16 x i8] c"\0B\00\00\00\00\00\00\00D\00\00\00\11\00\00\00" }>, align 8
@alloc_ca6ebc7cbc4278e5f0eca1f974af9aeb = private unnamed_addr constant <{ ptr, [16 x i8] }> <{ ptr @alloc_806c13c7682962bbd029107620e823a9, [16 x i8] c"\0B\00\00\00\00\00\00\00D\00\00\00\09\00\00\00" }>, align 8
@alloc_72bab19e04711bd76595a588c90ea5e4 = private unnamed_addr constant <{ ptr, [16 x i8] }> <{ ptr @alloc_806c13c7682962bbd029107620e823a9, [16 x i8] c"\0B\00\00\00\00\00\00\00?\00\00\00\12\00\00\00" }>, align 8
@alloc_92631e26319c600f7c23836df59ea56f = private unnamed_addr constant <{ ptr, [16 x i8] }> <{ ptr @alloc_806c13c7682962bbd029107620e823a9, [16 x i8] c"\0B\00\00\00\00\00\00\00?\00\00\00\09\00\00\00" }>, align 8
@alloc_16730cc74b33d279686b65b333893dec = private unnamed_addr constant <{ ptr, [16 x i8] }> <{ ptr @alloc_806c13c7682962bbd029107620e823a9, [16 x i8] c"\0B\00\00\00\00\00\00\00:\00\00\00\10\00\00\00" }>, align 8
@alloc_51e7df3f3f8694614ddb730774562a68 = private unnamed_addr constant <{ ptr, [16 x i8] }> <{ ptr @alloc_806c13c7682962bbd029107620e823a9, [16 x i8] c"\0B\00\00\00\00\00\00\00:\00\00\00\09\00\00\00" }>, align 8
@alloc_0e2c23d624c3e5a5d9859cdbce72e47b = private unnamed_addr constant <{ ptr, [16 x i8] }> <{ ptr @alloc_806c13c7682962bbd029107620e823a9, [16 x i8] c"\0B\00\00\00\00\00\00\004\00\00\00\12\00\00\00" }>, align 8
@alloc_3edc06a6919dfed35222ce20aed6be85 = private unnamed_addr constant <{ ptr, [16 x i8] }> <{ ptr @alloc_806c13c7682962bbd029107620e823a9, [16 x i8] c"\0B\00\00\00\00\00\00\004\00\00\00\09\00\00\00" }>, align 8
@alloc_785b37d3a73753d7b9e8d3ff0a41694b = private unnamed_addr constant <{ ptr, [16 x i8] }> <{ ptr @alloc_806c13c7682962bbd029107620e823a9, [16 x i8] c"\0B\00\00\00\00\00\00\00T\00\00\00\0F\00\00\00" }>, align 8
@alloc_f48da773f8f56efc16b3e15c79f7c487 = private unnamed_addr constant <{ ptr, [16 x i8] }> <{ ptr @alloc_806c13c7682962bbd029107620e823a9, [16 x i8] c"\0B\00\00\00\00\00\00\00U\00\00\00\13\00\00\00" }>, align 8
@alloc_a9355c217b23efe354d139adc3669940 = private unnamed_addr constant <{ ptr, [16 x i8] }> <{ ptr @alloc_806c13c7682962bbd029107620e823a9, [16 x i8] c"\0B\00\00\00\00\00\00\00V\00\00\00\12\00\00\00" }>, align 8
@alloc_e245596c5938dabc890f33565ffad0d6 = private unnamed_addr constant <{ ptr, [16 x i8] }> <{ ptr @alloc_806c13c7682962bbd029107620e823a9, [16 x i8] c"\0B\00\00\00\00\00\00\00\86\00\00\00\1E\00\00\00" }>, align 8
@alloc_3b3ac9cbb7fb6162b3eca074e27bc77f = private unnamed_addr constant <{ ptr, [16 x i8] }> <{ ptr @alloc_806c13c7682962bbd029107620e823a9, [16 x i8] c"\0B\00\00\00\00\00\00\00\87\00\00\00\12\00\00\00" }>, align 8
@alloc_90ecbfea9dae802c06635000d837a6d4 = private unnamed_addr constant <{ ptr, [16 x i8] }> <{ ptr @alloc_806c13c7682962bbd029107620e823a9, [16 x i8] c"\0B\00\00\00\00\00\00\00\7F\00\00\00\09\00\00\00" }>, align 8
@alloc_bf8fbd3af1330e7e88ea324689191407 = private unnamed_addr constant <{ ptr, [16 x i8] }> <{ ptr @alloc_806c13c7682962bbd029107620e823a9, [16 x i8] c"\0B\00\00\00\00\00\00\00\81\00\00\00\0D\00\00\00" }>, align 8
@alloc_f590646bac864c3e390e3753a4923ca2 = private unnamed_addr constant <{ ptr, [16 x i8] }> <{ ptr @alloc_806c13c7682962bbd029107620e823a9, [16 x i8] c"\0B\00\00\00\00\00\00\00\83\00\00\00\09\00\00\00" }>, align 8
@alloc_410b057ca8e8378645a8f38fa8a3c6e4 = private unnamed_addr constant <{ ptr, [16 x i8] }> <{ ptr @alloc_806c13c7682962bbd029107620e823a9, [16 x i8] c"\0B\00\00\00\00\00\00\00\9C\00\00\00\12\00\00\00" }>, align 8
@alloc_ce71997aa69210f35e2cb46d4a29dc59 = private unnamed_addr constant <{ ptr, [16 x i8] }> <{ ptr @alloc_806c13c7682962bbd029107620e823a9, [16 x i8] c"\0B\00\00\00\00\00\00\00\98\00\00\00\09\00\00\00" }>, align 8
@alloc_a6e438387bf03957b0c187587e1e0412 = private unnamed_addr constant <{ ptr, [16 x i8] }> <{ ptr @alloc_806c13c7682962bbd029107620e823a9, [16 x i8] c"\0B\00\00\00\00\00\00\00\99\00\00\00\09\00\00\00" }>, align 8
@alloc_c05596c09c6ffeb15c6ca1faa51e5f16 = private unnamed_addr constant <{ ptr, [16 x i8] }> <{ ptr @alloc_806c13c7682962bbd029107620e823a9, [16 x i8] c"\0B\00\00\00\00\00\00\00\CA\00\00\00\13\00\00\00" }>, align 8
@alloc_7c2f546420f6bd6676bb60bfbb706176 = private unnamed_addr constant <{ ptr, [16 x i8] }> <{ ptr @alloc_806c13c7682962bbd029107620e823a9, [16 x i8] c"\0B\00\00\00\00\00\00\00\CC\00\00\00\14\00\00\00" }>, align 8
@alloc_1dc1872e692806c565f47e5d2e98ec11 = private unnamed_addr constant <{ ptr, [16 x i8] }> <{ ptr @alloc_806c13c7682962bbd029107620e823a9, [16 x i8] c"\0B\00\00\00\00\00\00\00\CD\00\00\00\14\00\00\00" }>, align 8
@alloc_464577722e259a03f0463cd74ca2b4f4 = private unnamed_addr constant <{ ptr, [16 x i8] }> <{ ptr @alloc_806c13c7682962bbd029107620e823a9, [16 x i8] c"\0B\00\00\00\00\00\00\00\CF\00\00\00\14\00\00\00" }>, align 8
@alloc_6446ffd3284635dfeadc7d74216884a3 = private unnamed_addr constant <{ ptr, [16 x i8] }> <{ ptr @alloc_806c13c7682962bbd029107620e823a9, [16 x i8] c"\0B\00\00\00\00\00\00\00\D0\00\00\00\14\00\00\00" }>, align 8
@alloc_ac8652ea5b018139c2b014cd246996c7 = private unnamed_addr constant <{ ptr, [16 x i8] }> <{ ptr @alloc_806c13c7682962bbd029107620e823a9, [16 x i8] c"\0B\00\00\00\00\00\00\00\D2\00\00\00\15\00\00\00" }>, align 8
@alloc_a01da3f3762fb285a3af45fe9f3ba7fd = private unnamed_addr constant <{ ptr, [16 x i8] }> <{ ptr @alloc_806c13c7682962bbd029107620e823a9, [16 x i8] c"\0B\00\00\00\00\00\00\00\D3\00\00\00\15\00\00\00" }>, align 8
@alloc_a9b2c933e9e4c008d653fa5046d11950 = private unnamed_addr constant <{ ptr, [16 x i8] }> <{ ptr @alloc_806c13c7682962bbd029107620e823a9, [16 x i8] c"\0B\00\00\00\00\00\00\00\D5\00\00\00\12\00\00\00" }>, align 8
@alloc_61fb8659a3f0d1224e43a21390cbc84a = private unnamed_addr constant <{ ptr, [16 x i8] }> <{ ptr @alloc_806c13c7682962bbd029107620e823a9, [16 x i8] c"\0B\00\00\00\00\00\00\00\15\00\00\00\0D\00\00\00" }>, align 8
@alloc_fd57f5203a86ee5fa607a9f133a89429 = private unnamed_addr constant <{ ptr, [16 x i8] }> <{ ptr @alloc_806c13c7682962bbd029107620e823a9, [16 x i8] c"\0B\00\00\00\00\00\00\00\16\00\00\00\0D\00\00\00" }>, align 8
@alloc_e8778db7d1e3a5a84315a20e11e576c2 = private unnamed_addr constant <{ ptr, [16 x i8] }> <{ ptr @alloc_806c13c7682962bbd029107620e823a9, [16 x i8] c"\0B\00\00\00\00\00\00\00\17\00\00\00\0D\00\00\00" }>, align 8
@alloc_83a4129f8165f453a419f63ccad6d0bd = private unnamed_addr constant <{ ptr, [16 x i8] }> <{ ptr @alloc_806c13c7682962bbd029107620e823a9, [16 x i8] c"\0B\00\00\00\00\00\00\00\18\00\00\00\12\00\00\00" }>, align 8
@alloc_a075f3348245ad0f4c728ca4014f0b1d = private unnamed_addr constant <{ ptr, [16 x i8] }> <{ ptr @alloc_806c13c7682962bbd029107620e823a9, [16 x i8] c"\0B\00\00\00\00\00\00\00\AA\00\00\00\12\00\00\00" }>, align 8
@alloc_554ea050d821976317a4a1cbb2900139 = private unnamed_addr constant <{ ptr, [16 x i8] }> <{ ptr @alloc_806c13c7682962bbd029107620e823a9, [16 x i8] c"\0B\00\00\00\00\00\00\00!\00\00\00\0D\00\00\00" }>, align 8
@alloc_940c7c2df72b141b305514d5c5846a9f = private unnamed_addr constant <{ ptr, [16 x i8] }> <{ ptr @alloc_806c13c7682962bbd029107620e823a9, [16 x i8] c"\0B\00\00\00\00\00\00\00\22\00\00\00\0D\00\00\00" }>, align 8
@alloc_2072623f7a08942c8b9afc6baa468fd3 = private unnamed_addr constant <{ ptr, [16 x i8] }> <{ ptr @alloc_806c13c7682962bbd029107620e823a9, [16 x i8] c"\0B\00\00\00\00\00\00\00#\00\00\00\0D\00\00\00" }>, align 8
@alloc_89b25a76e0b39cf09fe2a8d5062c6ea0 = private unnamed_addr constant <{ ptr, [16 x i8] }> <{ ptr @alloc_806c13c7682962bbd029107620e823a9, [16 x i8] c"\0B\00\00\00\00\00\00\00$\00\00\00\0D\00\00\00" }>, align 8
@alloc_efd032de76e02e18b0c63dab675c54b0 = private unnamed_addr constant <{ ptr, [16 x i8] }> <{ ptr @alloc_806c13c7682962bbd029107620e823a9, [16 x i8] c"\0B\00\00\00\00\00\00\00%\00\00\00\0D\00\00\00" }>, align 8
@alloc_c3b91fb83cafd53f9156472184863aba = private unnamed_addr constant <{ ptr, [16 x i8] }> <{ ptr @alloc_806c13c7682962bbd029107620e823a9, [16 x i8] c"\0B\00\00\00\00\00\00\00&\00\00\00\0D\00\00\00" }>, align 8
@alloc_df5b8025194d9c034f0f2a30a8fd80c1 = private unnamed_addr constant <{ ptr, [16 x i8] }> <{ ptr @alloc_806c13c7682962bbd029107620e823a9, [16 x i8] c"\0B\00\00\00\00\00\00\00'\00\00\00\0D\00\00\00" }>, align 8
@alloc_02265087402bfcfd6998c27931e6d997 = private unnamed_addr constant <{ ptr, [16 x i8] }> <{ ptr @alloc_806c13c7682962bbd029107620e823a9, [16 x i8] c"\0B\00\00\00\00\00\00\00(\00\00\00\12\00\00\00" }>, align 8
@alloc_81141ac393f22297ed430df2116a03e3 = private unnamed_addr constant <{ ptr, [16 x i8] }> <{ ptr @alloc_806c13c7682962bbd029107620e823a9, [16 x i8] c"\0B\00\00\00\00\00\00\00\BC\00\00\00\0D\00\00\00" }>, align 8
@alloc_bd81d0a87f7742de1087dcb613dcfa6c = private unnamed_addr constant <{ ptr, [16 x i8] }> <{ ptr @alloc_806c13c7682962bbd029107620e823a9, [16 x i8] c"\0B\00\00\00\00\00\00\00h\00\00\00\0D\00\00\00" }>, align 8
@alloc_b658d52a05ce08dc1974b8bf9a69bcea = private unnamed_addr constant <{ ptr, [16 x i8] }> <{ ptr @alloc_806c13c7682962bbd029107620e823a9, [16 x i8] c"\0B\00\00\00\00\00\00\00i\00\00\00\0D\00\00\00" }>, align 8
@alloc_0829a4c6b8f03fd645d481508cdbefea = private unnamed_addr constant <{ ptr, [16 x i8] }> <{ ptr @alloc_806c13c7682962bbd029107620e823a9, [16 x i8] c"\0B\00\00\00\00\00\00\00j\00\00\00\0D\00\00\00" }>, align 8
@alloc_aca94fdc1f4698f39d70417a4ca922b2 = private unnamed_addr constant <{ ptr, [16 x i8] }> <{ ptr @alloc_806c13c7682962bbd029107620e823a9, [16 x i8] c"\0B\00\00\00\00\00\00\00d\00\00\00\0D\00\00\00" }>, align 8
@alloc_700fc103654d20bc523c4c7fe4f00486 = private unnamed_addr constant <{ ptr, [16 x i8] }> <{ ptr @alloc_806c13c7682962bbd029107620e823a9, [16 x i8] c"\0B\00\00\00\00\00\00\00e\00\00\00\0D\00\00\00" }>, align 8
@alloc_f9243d91a3680e43941bb4fde1ac376e = private unnamed_addr constant <{ ptr, [16 x i8] }> <{ ptr @alloc_806c13c7682962bbd029107620e823a9, [16 x i8] c"\0B\00\00\00\00\00\00\00f\00\00\00\0D\00\00\00" }>, align 8
@alloc_66a831228cf697551d50e46832ea2c59 = private unnamed_addr constant <{ ptr, [16 x i8] }> <{ ptr @alloc_806c13c7682962bbd029107620e823a9, [16 x i8] c"\0B\00\00\00\00\00\00\00m\00\00\00\0D\00\00\00" }>, align 8
@alloc_1ceb26e03e39487f68725163cfa34930 = private unnamed_addr constant <{ ptr, [16 x i8] }> <{ ptr @alloc_806c13c7682962bbd029107620e823a9, [16 x i8] c"\0B\00\00\00\00\00\00\00n\00\00\00\0D\00\00\00" }>, align 8
@alloc_6abf70f08e443777b65a9300036a4a49 = private unnamed_addr constant <{ ptr, [16 x i8] }> <{ ptr @alloc_806c13c7682962bbd029107620e823a9, [16 x i8] c"\0B\00\00\00\00\00\00\00o\00\00\00(\00\00\00" }>, align 8
@alloc_2231e5f71bd57f90fa20e5ddb541335f = private unnamed_addr constant <{ ptr, [16 x i8] }> <{ ptr @alloc_806c13c7682962bbd029107620e823a9, [16 x i8] c"\0B\00\00\00\00\00\00\00\03\01\00\00\12\00\00\00" }>, align 8
@alloc_6185d67225fcd96174cd0c55727c09f2 = private unnamed_addr constant <{ ptr, [16 x i8] }> <{ ptr @alloc_806c13c7682962bbd029107620e823a9, [16 x i8] c"\0B\00\00\00\00\00\00\00\E9\00\00\00\15\00\00\00" }>, align 8
@alloc_e5b111ecf0551df90296fa3d11457081 = private unnamed_addr constant <{ ptr, [16 x i8] }> <{ ptr @alloc_806c13c7682962bbd029107620e823a9, [16 x i8] c"\0B\00\00\00\00\00\00\00\E6\00\00\00\15\00\00\00" }>, align 8
@alloc_79a6f1c3621b821f2e9cdb1da3a8bcd7 = private unnamed_addr constant <{ ptr, [16 x i8] }> <{ ptr @alloc_806c13c7682962bbd029107620e823a9, [16 x i8] c"\0B\00\00\00\00\00\00\00\F1\00\00\00\15\00\00\00" }>, align 8
@alloc_8381e234fca69e89a382b9b9821409cb = private unnamed_addr constant <{ ptr, [16 x i8] }> <{ ptr @alloc_806c13c7682962bbd029107620e823a9, [16 x i8] c"\0B\00\00\00\00\00\00\00\EF\00\00\00\15\00\00\00" }>, align 8
@alloc_6e8daf13c3588d7d2a30c620a574bc93 = private unnamed_addr constant <{ ptr, [16 x i8] }> <{ ptr @alloc_806c13c7682962bbd029107620e823a9, [16 x i8] c"\0B\00\00\00\00\00\00\00\F9\00\00\00\15\00\00\00" }>, align 8
@alloc_40a81238cb6bd2941c0999de055dee3b = private unnamed_addr constant <{ ptr, [16 x i8] }> <{ ptr @alloc_806c13c7682962bbd029107620e823a9, [16 x i8] c"\0B\00\00\00\00\00\00\00\F7\00\00\00\15\00\00\00" }>, align 8
@alloc_fe729c73b612a70b328e4e230ec2e07a = private unnamed_addr constant <{ ptr, [16 x i8] }> <{ ptr @alloc_806c13c7682962bbd029107620e823a9, [16 x i8] c"\0B\00\00\00\00\00\00\00\00\01\00\00\09\00\00\00" }>, align 8
@alloc_ac99f423ad94a05b9b7e98c273a93413 = private unnamed_addr constant <{ ptr, [16 x i8] }> <{ ptr @alloc_806c13c7682962bbd029107620e823a9, [16 x i8] c"\0B\00\00\00\00\00\00\00\16\01\00\00\14\00\00\00" }>, align 8
@alloc_f4182e5effdc95d739be0548cac79c47 = private unnamed_addr constant <{ ptr, [16 x i8] }> <{ ptr @alloc_806c13c7682962bbd029107620e823a9, [16 x i8] c"\0B\00\00\00\00\00\00\00\16\01\00\00\13\00\00\00" }>, align 8
@alloc_dbf3310e6d94dbec83ad61b2345eb22c = private unnamed_addr constant <{ ptr, [16 x i8] }> <{ ptr @alloc_806c13c7682962bbd029107620e823a9, [16 x i8] c"\0B\00\00\00\00\00\00\00\17\01\00\00\10\00\00\00" }>, align 8
@alloc_b9d701a33408a9e331a2a20901233cd0 = private unnamed_addr constant <{ ptr, [16 x i8] }> <{ ptr @alloc_806c13c7682962bbd029107620e823a9, [16 x i8] c"\0B\00\00\00\00\00\00\00\17\01\00\00\09\00\00\00" }>, align 8
@alloc_b93a130b1402878d6b6c1ca42e6b671d = private unnamed_addr constant <{ ptr, [16 x i8] }> <{ ptr @alloc_806c13c7682962bbd029107620e823a9, [16 x i8] c"\0B\00\00\00\00\00\00\00\0F\01\00\00\14\00\00\00" }>, align 8
@alloc_810d862750bd6290815f6d955a2bdfb8 = private unnamed_addr constant <{ ptr, [16 x i8] }> <{ ptr @alloc_806c13c7682962bbd029107620e823a9, [16 x i8] c"\0B\00\00\00\00\00\00\00\0F\01\00\00\13\00\00\00" }>, align 8
@alloc_c4831d137a808623f31ec09bc2677db9 = private unnamed_addr constant <{ ptr, [16 x i8] }> <{ ptr @alloc_806c13c7682962bbd029107620e823a9, [16 x i8] c"\0B\00\00\00\00\00\00\00\10\01\00\00\15\00\00\00" }>, align 8
@alloc_9c9d131b0b6df5963b119f59455120ad = private unnamed_addr constant <{ ptr, [16 x i8] }> <{ ptr @alloc_806c13c7682962bbd029107620e823a9, [16 x i8] c"\0B\00\00\00\00\00\00\00\10\01\00\00\09\00\00\00" }>, align 8
@_RNvCs9dAga0YNYgM_17alias_access_test4SINK = internal global [4 x i8] zeroinitializer, align 4, !dbg !24
@alloc_31e00e8f372f2fd3fb8aafcf58f7dccc = private unnamed_addr constant [45 x i8] c"=== Running Rust Alias Access Test Suite ===\0A", align 1
@alloc_f9bb0740a17738508a02b31999aa1615 = private unnamed_addr constant [31 x i8] c"\0A--- Test 1: Simple Locals ---\0A", align 1
@alloc_129e638c7e77b36305a17c29941dd237 = private unnamed_addr constant [4 x i8] c"\19\00\00\00", align 4
@alloc_76b8df120ebea164d7106c04846a3d9f = private unnamed_addr constant <{ ptr, [16 x i8] }> <{ ptr @alloc_806c13c7682962bbd029107620e823a9, [16 x i8] c"\0B\00\00\00\00\00\00\00$\01\00\00\05\00\00\00" }>, align 8
@alloc_474458dc67b3ba316f9c3cd63b097ad9 = private unnamed_addr constant [33 x i8] c"\1Ctest_simple_locals(10, 5) = \C0\01\0A\00", align 1
@alloc_228dcc80332ffe6c29b4d9b0bfad1da2 = private unnamed_addr constant [27 x i8] c"Simple locals test passed!\0A", align 1
@alloc_11ebcdf43c19b1d2995e1bfb82d01ceb = private unnamed_addr constant [33 x i8] c"\0A--- Test 2: Multiple Locals ---\0A", align 1
@alloc_e3e143fb26e9bc2a81054057f78086ba = private unnamed_addr constant [4 x i8] c"\14\00\00\00", align 4
@alloc_c4bafcc18992e08b304001bbe4cf3d0c = private unnamed_addr constant <{ ptr, [16 x i8] }> <{ ptr @alloc_806c13c7682962bbd029107620e823a9, [16 x i8] c"\0B\00\00\00\00\00\00\00,\01\00\00\05\00\00\00" }>, align 8
@alloc_b7bb7e8e3a0c7a844d20c3ec4bdc733b = private unnamed_addr constant [32 x i8] c"\1Btest_multiple_locals(10) = \C0\01\0A\00", align 1
@alloc_50deab524e6efaa6a631a27a8f098822 = private unnamed_addr constant [29 x i8] c"Multiple locals test passed!\0A", align 1
@alloc_97fb59d3bd57fc0c813cd693c577c155 = private unnamed_addr constant [29 x i8] c"\0A--- Test 3: Local Array ---\0A", align 1
@alloc_8e185c8ec842813b2cbefd8f7b556bfe = private unnamed_addr constant [4 x i8] c"\8C\00\00\00", align 4
@alloc_34e8f1535997032b04e8a3b735e518d1 = private unnamed_addr constant <{ ptr, [16 x i8] }> <{ ptr @alloc_806c13c7682962bbd029107620e823a9, [16 x i8] c"\0B\00\00\00\00\00\00\006\01\00\00\05\00\00\00" }>, align 8
@alloc_502ef160ca8c95cd6172f28226798e3c = private unnamed_addr constant [27 x i8] c"\16test_local_array(2) = \C0\01\0A\00", align 1
@alloc_b2ce23e7d750d87492da462c5f43e73e = private unnamed_addr constant [25 x i8] c"Local array test passed!\0A", align 1
@alloc_47c5aa9ff8af52aad822a96ead2ebbb5 = private unnamed_addr constant [29 x i8] c"\0A--- Test 4: Local Tuple ---\0A", align 1
@alloc_861c8964bbad6d9cede9df277e628fe9 = private unnamed_addr constant [4 x i8] c"\13\00\00\00", align 4
@alloc_4c02b89ceabebcc907dd240e9d33d5d0 = private unnamed_addr constant <{ ptr, [16 x i8] }> <{ ptr @alloc_806c13c7682962bbd029107620e823a9, [16 x i8] c"\0B\00\00\00\00\00\00\00>\01\00\00\05\00\00\00" }>, align 8
@alloc_eefc8798316f43d5218f2509fbba0fdb = private unnamed_addr constant [33 x i8] c"\1Ctest_local_tuple(3, 4, 5) = \C0\01\0A\00", align 1
@alloc_7d995d784c51a8b15b613a1704712aae = private unnamed_addr constant [25 x i8] c"Local tuple test passed!\0A", align 1
@alloc_ab26e9a793c9840685b84fd0391f3108 = private unnamed_addr constant [36 x i8] c"\0A--- Test 5: Conditional Locals ---\0A", align 1
@alloc_438824954e55cae3acf8e16ddc1ac045 = private unnamed_addr constant [4 x i8] c"\0F\00\00\00", align 4
@alloc_3cb43e298756f11608a7d836bd7714dc = private unnamed_addr constant <{ ptr, [16 x i8] }> <{ ptr @alloc_806c13c7682962bbd029107620e823a9, [16 x i8] c"\0B\00\00\00\00\00\00\00F\01\00\00\05\00\00\00" }>, align 8
@alloc_bea119901b7147d41b1d5346173f8313 = private unnamed_addr constant <{ ptr, [16 x i8] }> <{ ptr @alloc_806c13c7682962bbd029107620e823a9, [16 x i8] c"\0B\00\00\00\00\00\00\00I\01\00\00\05\00\00\00" }>, align 8
@alloc_acd835061d054a519a06c032b9d637da = private unnamed_addr constant [35 x i8] c"\1Etest_conditional_locals(10) = \C0\01\0A\00", align 1
@alloc_a101bdb60edb46e87cfe215fabdbff6f = private unnamed_addr constant [36 x i8] c"\1Ftest_conditional_locals(-10) = \C0\01\0A\00", align 1
@alloc_2fc551df33513b784dae09d16e12ef10 = private unnamed_addr constant [32 x i8] c"Conditional locals test passed!\0A", align 1
@alloc_dafe37aa0547c8dfed3ceb15548e10c8 = private unnamed_addr constant [29 x i8] c"\0A--- Test 6: Loop Locals ---\0A", align 1
@alloc_3dbf86eea0dc1c1b50256f9bb4e56473 = private unnamed_addr constant [4 x i8] c"}\00\00\00", align 4
@alloc_79e44737329cbcdf53a754ae050fbcae = private unnamed_addr constant <{ ptr, [16 x i8] }> <{ ptr @alloc_806c13c7682962bbd029107620e823a9, [16 x i8] c"\0B\00\00\00\00\00\00\00R\01\00\00\05\00\00\00" }>, align 8
@alloc_fcc91d3f38eb5a5c0f1b51dac51862e1 = private unnamed_addr constant [28 x i8] c"\17test_loop_locals(10) = \C0\01\0A\00", align 1
@alloc_2047c97293e952f12724a02396cd9736 = private unnamed_addr constant [25 x i8] c"Loop locals test passed!\0A", align 1
@alloc_e83919c3f814e7cb34f6b9172b91268a = private unnamed_addr constant [29 x i8] c"\0A--- Test 7: Swap Locals ---\0A", align 1
@alloc_0e5e618d1c9d9a6746889a5d0ac6b5f5 = private unnamed_addr constant [4 x i8] c"r\00\00\00", align 4
@alloc_b5d22b3bfbe7f03727ef8289d1de1e54 = private unnamed_addr constant <{ ptr, [16 x i8] }> <{ ptr @alloc_806c13c7682962bbd029107620e823a9, [16 x i8] c"\0B\00\00\00\00\00\00\00^\01\00\00\05\00\00\00" }>, align 8
@alloc_ec2cd2abf88b65102bf8dc8313871cca = private unnamed_addr constant [31 x i8] c"\1Atest_swap_locals(5, 10) = \C0\01\0A\00", align 1
@alloc_4a7b6ab940409d66d29757c9eed82997 = private unnamed_addr constant [25 x i8] c"Swap locals test passed!\0A", align 1
@alloc_b1e0592fbfe37ec597bd2505ba31e544 = private unnamed_addr constant [32 x i8] c"\0A--- Test 8: Bitwise Locals ---\0A", align 1
@alloc_1455a4ce9a90f62d88a0bf78a7bdc6c7 = private unnamed_addr constant [4 x i8] c"\99\00\00\00", align 4
@alloc_a5ab563ae41d9a2c64f03a7ded15538e = private unnamed_addr constant <{ ptr, [16 x i8] }> <{ ptr @alloc_806c13c7682962bbd029107620e823a9, [16 x i8] c"\0B\00\00\00\00\00\00\00g\01\00\00\05\00\00\00" }>, align 8
@alloc_7150e3f01f816ab14958ad6284155c1c = private unnamed_addr constant [39 x i8] c"\22test_bitwise_locals(0x12, 0x34) = \C0\01\0A\00", align 1
@alloc_3b3090a88b63fa529fcd3cbf2ee50b60 = private unnamed_addr constant [28 x i8] c"Bitwise locals test passed!\0A", align 1
@alloc_c0d83fe3e50dff5267eaf8b94a194353 = private unnamed_addr constant [34 x i8] c"\0A--- Test 9: Fibonacci Locals ---\0A", align 1
@alloc_9c8e592ae99883418f5f3096d1bf9544 = private unnamed_addr constant [4 x i8] c"7\00\00\00", align 4
@alloc_81331164fac86f118982e0fd8a1f0203 = private unnamed_addr constant <{ ptr, [16 x i8] }> <{ ptr @alloc_806c13c7682962bbd029107620e823a9, [16 x i8] c"\0B\00\00\00\00\00\00\00n\01\00\00\05\00\00\00" }>, align 8
@alloc_b3fbc8ba7128b123fe8738e9c082f622 = private unnamed_addr constant [33 x i8] c"\1Ctest_fibonacci_locals(10) = \C0\01\0A\00", align 1
@alloc_f54bfb5dfeb46bf17574dc2072aa3e95 = private unnamed_addr constant [30 x i8] c"Fibonacci locals test passed!\0A", align 1
@alloc_05c34fb892e949074c5b2d555a22271b = private unnamed_addr constant [32 x i8] c"\0A--- Test 10: Nested Locals ---\0A", align 1
@alloc_071a8c0ac61f198bf6c9a451edea482d = private unnamed_addr constant [4 x i8] c"U\00\00\00", align 4
@alloc_d4f97eb879df08fe4e01b8c8272d54ef = private unnamed_addr constant <{ ptr, [16 x i8] }> <{ ptr @alloc_806c13c7682962bbd029107620e823a9, [16 x i8] c"\0B\00\00\00\00\00\00\00y\01\00\00\05\00\00\00" }>, align 8
@alloc_7cc606b68ebd07b8de1cac8938429c07 = private unnamed_addr constant [29 x i8] c"\18test_nested_locals(5) = \C0\01\0A\00", align 1
@alloc_9914a13b8d06d6aac22acbfbf0eb113b = private unnamed_addr constant [27 x i8] c"Nested locals test passed!\0A", align 1
@alloc_75e282672bf0f0d735200069809a5572 = private unnamed_addr constant [39 x i8] c"\0A--- Test 11: State Machine Locals ---\0A", align 1
@alloc_fa908e0e6670f1a07d0695aa75a05168 = private unnamed_addr constant [48 x i8] c"+test_state_machine_locals([5,-3,2,-1,4]) = \C0\01\0A\00", align 1
@alloc_56cfeb64ec3b60152eb38166797210a0 = private unnamed_addr constant [40 x i8] c"\0A--- Test 12: Computed Index Locals ---\0A", align 1
@alloc_22ffb167d13d5b00f0141613d7dbedb1 = private unnamed_addr constant [37 x i8] c" test_computed_index_locals(1) = \C0\01\0A\00", align 1
@alloc_84c35a7cbde9fbdd885a5f44b4b6dddc = private unnamed_addr constant [32 x i8] c"\17\0A=== Final Sink Value: \C0\05 ===\0A\00", align 1
@alloc_93e256ef1c94f8821049d744c16d86e9 = private unnamed_addr constant [40 x i8] c"SUCCESS: All alias access tests passed!\0A", align 1
@alloc_3e1ebac14318b612ab4efabc52799932 = private unnamed_addr constant [186 x i8] c"unsafe precondition(s) violated: usize::unchecked_add cannot overflow\0A\0AThis indicates a bug in the program. This Undefined Behavior check is optional, and cannot be relied on for safety.", align 1
@alloc_75fb06c2453febd814e73f5f2e72ae38 = private unnamed_addr constant [199 x i8] c"unsafe precondition(s) violated: hint::unreachable_unchecked must never be reached\0A\0AThis indicates a bug in the program. This Undefined Behavior check is optional, and cannot be relied on for safety.", align 1
@anon.2cf0c1d40cc4e776c7c5e8652d40a35e.168 = private unnamed_addr constant <{ [4 x i8], [4 x i8] }> <{ [4 x i8] zeroinitializer, [4 x i8] undef }>, align 4
@alloc_2f00089e2a5a04c1114d9c964866396d = private unnamed_addr constant [79 x i8] c"/rustc/8d670b93d40737e1b320fd892c6f169ffa35e49e/library/core/src/iter/range.rs\00", align 1
@alloc_9ee2932cc44fb545a92a3bedbfcb9a86 = private unnamed_addr constant <{ ptr, [16 x i8] }> <{ ptr @alloc_2f00089e2a5a04c1114d9c964866396d, [16 x i8] c"N\00\00\00\00\00\00\00\AB\01\00\00\01\00\00\00" }>, align 8
@__rustc_debug_gdb_scripts_section__ = linkonce_odr unnamed_addr constant [34 x i8] c"\01gdb_load_rust_pretty_printers.py\00", section ".debug_gdb_scripts", align 1

; <core::fmt::rt::Argument>::new_display::<i32>
; Function Attrs: inlinehint nonlazybind uwtable
define internal void @_RINvMNtNtCsiJgtBcGlDou_4core3fmt2rtNtB3_8Argument11new_displaylECs9dAga0YNYgM_17alias_access_test(ptr sret([16 x i8]) align 8 %_0, ptr align 4 %x) unnamed_addr #0 !dbg !65 {
start:
  %raw_box = alloca %amice.alias.st, align 8
  %0 = alloca { ptr, ptr, ptr, ptr, ptr, ptr }, align 8
  %slot = getelementptr inbounds nuw { ptr, ptr, ptr, ptr, ptr, ptr }, ptr %0, i32 0, i32 2
  store ptr %raw_box, ptr %slot, align 8
  %slot1 = getelementptr inbounds nuw { ptr, ptr, ptr, ptr, ptr, ptr }, ptr %0, i32 0, i32 4
  store ptr %raw_box, ptr %slot1, align 8
  %1 = alloca { ptr, ptr, ptr, ptr, ptr, ptr }, align 8
  %2 = alloca { ptr, ptr, ptr, ptr, ptr, ptr }, align 8
  %slot2 = getelementptr inbounds nuw { ptr, ptr, ptr, ptr, ptr, ptr }, ptr %2, i32 0, i32 0
  store ptr %raw_box, ptr %slot2, align 8
  %slot3 = getelementptr inbounds nuw { ptr, ptr, ptr, ptr, ptr, ptr }, ptr %2, i32 0, i32 1
  store ptr %1, ptr %slot3, align 8
  %slot4 = getelementptr inbounds nuw { ptr, ptr, ptr, ptr, ptr, ptr }, ptr %2, i32 0, i32 5
  store ptr %1, ptr %slot4, align 8
  %field = getelementptr inbounds nuw %amice.alias.st, ptr %raw_box, i32 0, i32 0
  %callg = call ptr @anon.2cf0c1d40cc4e776c7c5e8652d40a35e.0(ptr %2)
  %ld_next = load ptr, ptr %callg, align 8
  %field5 = getelementptr inbounds nuw %amice.alias.st, ptr %ld_next, i32 0, i32 1
  %field6 = getelementptr inbounds nuw %amice.alias.st, ptr %raw_box, i32 0, i32 1
  %callg7 = call ptr @anon.2cf0c1d40cc4e776c7c5e8652d40a35e.1(ptr %0)
  %ld_next8 = load ptr, ptr %callg7, align 8
  %field9 = getelementptr inbounds nuw %amice.alias.st, ptr %ld_next8, i32 0, i32 1
  store ptr %x, ptr %field, align 8
    #dbg_declare(ptr poison, !147, !DIExpression(), !148)
    #dbg_declare(ptr poison, !149, !DIExpression(), !160)
  store ptr %x, ptr %field5, align 8, !dbg !162
  %3 = getelementptr inbounds i8, ptr %field6, i64 8, !dbg !162
  store ptr @_RNvXs9_NtNtNtCsiJgtBcGlDou_4core3fmt3num3implNtB9_7Display3fmt, ptr %3, align 8, !dbg !162
  call void @llvm.memcpy.p0.p0.i64(ptr align 8 %_0, ptr align 8 %field9, i64 16, i1 false), !dbg !163
  ret void, !dbg !164
}

; <core::fmt::Arguments>::new::<27, 1>
; Function Attrs: inlinehint nonlazybind uwtable
define internal { ptr, ptr } @_RINvMs2_NtCsiJgtBcGlDou_4core3fmtNtB6_9Arguments3newKj1b_Kj1_ECs9dAga0YNYgM_17alias_access_test(ptr align 1 %template, ptr align 8 %args) unnamed_addr #0 !dbg !165 {
start:
  %raw_box = alloca %amice.alias.st.0, align 8
  %raw_box1 = alloca %amice.alias.st.1, align 8
  %0 = alloca { ptr, ptr, ptr, ptr, ptr, ptr }, align 8
  %slot = getelementptr inbounds nuw { ptr, ptr, ptr, ptr, ptr, ptr }, ptr %0, i32 0, i32 3
  store ptr %raw_box1, ptr %slot, align 8
  %slot2 = getelementptr inbounds nuw { ptr, ptr, ptr, ptr, ptr, ptr }, ptr %0, i32 0, i32 0
  store ptr %raw_box, ptr %slot2, align 8
  %1 = alloca { ptr, ptr, ptr, ptr, ptr, ptr }, align 8
  %slot3 = getelementptr inbounds nuw { ptr, ptr, ptr, ptr, ptr, ptr }, ptr %1, i32 0, i32 1
  store ptr %raw_box, ptr %slot3, align 8
  %slot4 = getelementptr inbounds nuw { ptr, ptr, ptr, ptr, ptr, ptr }, ptr %1, i32 0, i32 5
  store ptr %0, ptr %slot4, align 8
  %slot5 = getelementptr inbounds nuw { ptr, ptr, ptr, ptr, ptr, ptr }, ptr %1, i32 0, i32 0
  store ptr %0, ptr %slot5, align 8
  %2 = alloca { ptr, ptr, ptr, ptr, ptr, ptr }, align 8
  %slot6 = getelementptr inbounds nuw { ptr, ptr, ptr, ptr, ptr, ptr }, ptr %2, i32 0, i32 1
  store ptr %1, ptr %slot6, align 8
  %slot7 = getelementptr inbounds nuw { ptr, ptr, ptr, ptr, ptr, ptr }, ptr %2, i32 0, i32 0
  store ptr %raw_box, ptr %slot7, align 8
  %slot8 = getelementptr inbounds nuw { ptr, ptr, ptr, ptr, ptr, ptr }, ptr %2, i32 0, i32 3
  store ptr %raw_box1, ptr %slot8, align 8
  %slot9 = getelementptr inbounds nuw { ptr, ptr, ptr, ptr, ptr, ptr }, ptr %2, i32 0, i32 2
  store ptr %0, ptr %slot9, align 8
  %3 = alloca { ptr, ptr, ptr, ptr, ptr, ptr }, align 8
  %4 = alloca { ptr, ptr, ptr, ptr, ptr, ptr }, align 8
  %slot10 = getelementptr inbounds nuw { ptr, ptr, ptr, ptr, ptr, ptr }, ptr %4, i32 0, i32 4
  store ptr %raw_box, ptr %slot10, align 8
  %slot11 = getelementptr inbounds nuw { ptr, ptr, ptr, ptr, ptr, ptr }, ptr %4, i32 0, i32 5
  store ptr %3, ptr %slot11, align 8
  %slot12 = getelementptr inbounds nuw { ptr, ptr, ptr, ptr, ptr, ptr }, ptr %4, i32 0, i32 1
  store ptr %1, ptr %slot12, align 8
  %5 = alloca { ptr, ptr, ptr, ptr, ptr, ptr }, align 8
  %slot13 = getelementptr inbounds nuw { ptr, ptr, ptr, ptr, ptr, ptr }, ptr %5, i32 0, i32 0
  store ptr %raw_box1, ptr %slot13, align 8
  %slot14 = getelementptr inbounds nuw { ptr, ptr, ptr, ptr, ptr, ptr }, ptr %5, i32 0, i32 1
  store ptr %0, ptr %slot14, align 8
  %slot15 = getelementptr inbounds nuw { ptr, ptr, ptr, ptr, ptr, ptr }, ptr %5, i32 0, i32 5
  store ptr %0, ptr %slot15, align 8
  %slot16 = getelementptr inbounds nuw { ptr, ptr, ptr, ptr, ptr, ptr }, ptr %5, i32 0, i32 2
  store ptr %1, ptr %slot16, align 8
  %callg = call ptr @anon.2cf0c1d40cc4e776c7c5e8652d40a35e.2(ptr %1)
  %ld_next = load ptr, ptr %callg, align 8
  %callg17 = call ptr @anon.2cf0c1d40cc4e776c7c5e8652d40a35e.2(ptr %ld_next)
  %ld_next18 = load ptr, ptr %callg17, align 8
  %field = getelementptr inbounds nuw %amice.alias.st.0, ptr %ld_next18, i32 0, i32 0
  %callg19 = call ptr @anon.2cf0c1d40cc4e776c7c5e8652d40a35e.3(ptr %4)
  %ld_next20 = load ptr, ptr %callg19, align 8
  %callg21 = call ptr @anon.2cf0c1d40cc4e776c7c5e8652d40a35e.4(ptr %ld_next20)
  %ld_next22 = load ptr, ptr %callg21, align 8
  %callg23 = call ptr @anon.2cf0c1d40cc4e776c7c5e8652d40a35e.5(ptr %ld_next22)
  %ld_next24 = load ptr, ptr %callg23, align 8
  %field25 = getelementptr inbounds nuw %amice.alias.st.1, ptr %ld_next24, i32 0, i32 0
  store ptr %template, ptr %field, align 8
    #dbg_declare(ptr poison, !195, !DIExpression(), !197)
  store ptr %args, ptr %field25, align 8
    #dbg_declare(ptr poison, !196, !DIExpression(), !198)
  %6 = insertvalue { ptr, ptr } poison, ptr %template, 0, !dbg !199
  %7 = insertvalue { ptr, ptr } %6, ptr %args, 1, !dbg !199
  ret { ptr, ptr } %7, !dbg !199
}

; <core::fmt::Arguments>::new::<28, 1>
; Function Attrs: inlinehint nonlazybind uwtable
define internal { ptr, ptr } @_RINvMs2_NtCsiJgtBcGlDou_4core3fmtNtB6_9Arguments3newKj1c_Kj1_ECs9dAga0YNYgM_17alias_access_test(ptr align 1 %template, ptr align 8 %args) unnamed_addr #0 !dbg !200 {
start:
  %raw_box = alloca %amice.alias.st.2, align 8
  %0 = alloca { ptr, ptr, ptr, ptr, ptr, ptr }, align 8
  %slot = getelementptr inbounds nuw { ptr, ptr, ptr, ptr, ptr, ptr }, ptr %0, i32 0, i32 3
  store ptr %raw_box, ptr %slot, align 8
  %slot1 = getelementptr inbounds nuw { ptr, ptr, ptr, ptr, ptr, ptr }, ptr %0, i32 0, i32 2
  store ptr %raw_box, ptr %slot1, align 8
  %slot2 = getelementptr inbounds nuw { ptr, ptr, ptr, ptr, ptr, ptr }, ptr %0, i32 0, i32 5
  store ptr %raw_box, ptr %slot2, align 8
  %1 = alloca { ptr, ptr, ptr, ptr, ptr, ptr }, align 8
  %slot3 = getelementptr inbounds nuw { ptr, ptr, ptr, ptr, ptr, ptr }, ptr %1, i32 0, i32 4
  store ptr %raw_box, ptr %slot3, align 8
  %2 = alloca { ptr, ptr, ptr, ptr, ptr, ptr }, align 8
  %slot4 = getelementptr inbounds nuw { ptr, ptr, ptr, ptr, ptr, ptr }, ptr %2, i32 0, i32 2
  store ptr %0, ptr %slot4, align 8
  %slot5 = getelementptr inbounds nuw { ptr, ptr, ptr, ptr, ptr, ptr }, ptr %2, i32 0, i32 4
  store ptr %1, ptr %slot5, align 8
  %slot6 = getelementptr inbounds nuw { ptr, ptr, ptr, ptr, ptr, ptr }, ptr %2, i32 0, i32 3
  store ptr %0, ptr %slot6, align 8
  %callg = call ptr @anon.2cf0c1d40cc4e776c7c5e8652d40a35e.6(ptr %1)
  %ld_next = load ptr, ptr %callg, align 8
  %field = getelementptr inbounds nuw %amice.alias.st.2, ptr %ld_next, i32 0, i32 1
  %callg7 = call ptr @anon.2cf0c1d40cc4e776c7c5e8652d40a35e.7(ptr %2)
  %ld_next8 = load ptr, ptr %callg7, align 8
  %callg9 = call ptr @anon.2cf0c1d40cc4e776c7c5e8652d40a35e.7(ptr %ld_next8)
  %ld_next10 = load ptr, ptr %callg9, align 8
  %field11 = getelementptr inbounds nuw %amice.alias.st.2, ptr %ld_next10, i32 0, i32 0
  store ptr %template, ptr %field, align 8
    #dbg_declare(ptr poison, !209, !DIExpression(), !211)
  store ptr %args, ptr %field11, align 8
    #dbg_declare(ptr poison, !210, !DIExpression(), !212)
  %3 = insertvalue { ptr, ptr } poison, ptr %template, 0, !dbg !213
  %4 = insertvalue { ptr, ptr } %3, ptr %args, 1, !dbg !213
  ret { ptr, ptr } %4, !dbg !213
}

; <core::fmt::Arguments>::new::<29, 1>
; Function Attrs: inlinehint nonlazybind uwtable
define internal { ptr, ptr } @_RINvMs2_NtCsiJgtBcGlDou_4core3fmtNtB6_9Arguments3newKj1d_Kj1_ECs9dAga0YNYgM_17alias_access_test(ptr align 1 %template, ptr align 8 %args) unnamed_addr #0 !dbg !214 {
start:
  %raw_box = alloca %amice.alias.st.3, align 8
  %raw_box1 = alloca %amice.alias.st.4, align 8
  %0 = alloca { ptr, ptr, ptr, ptr, ptr, ptr }, align 8
  %slot = getelementptr inbounds nuw { ptr, ptr, ptr, ptr, ptr, ptr }, ptr %0, i32 0, i32 3
  store ptr %raw_box, ptr %slot, align 8
  %slot2 = getelementptr inbounds nuw { ptr, ptr, ptr, ptr, ptr, ptr }, ptr %0, i32 0, i32 2
  store ptr %raw_box1, ptr %slot2, align 8
  %slot3 = getelementptr inbounds nuw { ptr, ptr, ptr, ptr, ptr, ptr }, ptr %0, i32 0, i32 4
  store ptr %raw_box1, ptr %slot3, align 8
  %1 = alloca { ptr, ptr, ptr, ptr, ptr, ptr }, align 8
  %slot4 = getelementptr inbounds nuw { ptr, ptr, ptr, ptr, ptr, ptr }, ptr %1, i32 0, i32 0
  store ptr %0, ptr %slot4, align 8
  %slot5 = getelementptr inbounds nuw { ptr, ptr, ptr, ptr, ptr, ptr }, ptr %1, i32 0, i32 4
  store ptr %raw_box1, ptr %slot5, align 8
  %slot6 = getelementptr inbounds nuw { ptr, ptr, ptr, ptr, ptr, ptr }, ptr %1, i32 0, i32 5
  store ptr %0, ptr %slot6, align 8
  %slot7 = getelementptr inbounds nuw { ptr, ptr, ptr, ptr, ptr, ptr }, ptr %1, i32 0, i32 1
  store ptr %raw_box, ptr %slot7, align 8
  %2 = alloca { ptr, ptr, ptr, ptr, ptr, ptr }, align 8
  %slot8 = getelementptr inbounds nuw { ptr, ptr, ptr, ptr, ptr, ptr }, ptr %2, i32 0, i32 2
  store ptr %0, ptr %slot8, align 8
  %slot9 = getelementptr inbounds nuw { ptr, ptr, ptr, ptr, ptr, ptr }, ptr %2, i32 0, i32 3
  store ptr %0, ptr %slot9, align 8
  %slot10 = getelementptr inbounds nuw { ptr, ptr, ptr, ptr, ptr, ptr }, ptr %2, i32 0, i32 5
  store ptr %1, ptr %slot10, align 8
  %slot11 = getelementptr inbounds nuw { ptr, ptr, ptr, ptr, ptr, ptr }, ptr %2, i32 0, i32 4
  store ptr %0, ptr %slot11, align 8
  %slot12 = getelementptr inbounds nuw { ptr, ptr, ptr, ptr, ptr, ptr }, ptr %2, i32 0, i32 0
  store ptr %0, ptr %slot12, align 8
  %3 = alloca { ptr, ptr, ptr, ptr, ptr, ptr }, align 8
  %slot13 = getelementptr inbounds nuw { ptr, ptr, ptr, ptr, ptr, ptr }, ptr %3, i32 0, i32 3
  store ptr %0, ptr %slot13, align 8
  %4 = alloca { ptr, ptr, ptr, ptr, ptr, ptr }, align 8
  %slot14 = getelementptr inbounds nuw { ptr, ptr, ptr, ptr, ptr, ptr }, ptr %4, i32 0, i32 3
  store ptr %raw_box, ptr %slot14, align 8
  %5 = alloca { ptr, ptr, ptr, ptr, ptr, ptr }, align 8
  %slot15 = getelementptr inbounds nuw { ptr, ptr, ptr, ptr, ptr, ptr }, ptr %5, i32 0, i32 1
  store ptr %raw_box, ptr %slot15, align 8
  %slot16 = getelementptr inbounds nuw { ptr, ptr, ptr, ptr, ptr, ptr }, ptr %5, i32 0, i32 5
  store ptr %raw_box1, ptr %slot16, align 8
  %slot17 = getelementptr inbounds nuw { ptr, ptr, ptr, ptr, ptr, ptr }, ptr %5, i32 0, i32 4
  store ptr %4, ptr %slot17, align 8
  %slot18 = getelementptr inbounds nuw { ptr, ptr, ptr, ptr, ptr, ptr }, ptr %5, i32 0, i32 3
  store ptr %2, ptr %slot18, align 8
  %slot19 = getelementptr inbounds nuw { ptr, ptr, ptr, ptr, ptr, ptr }, ptr %5, i32 0, i32 0
  store ptr %raw_box, ptr %slot19, align 8
  %field = getelementptr inbounds nuw %amice.alias.st.4, ptr %raw_box1, i32 0, i32 0
  %callg = call ptr @anon.2cf0c1d40cc4e776c7c5e8652d40a35e.8(ptr %0)
  %ld_next = load ptr, ptr %callg, align 8
  %field20 = getelementptr inbounds nuw %amice.alias.st.3, ptr %ld_next, i32 0, i32 0
  store ptr %template, ptr %field, align 8
    #dbg_declare(ptr poison, !223, !DIExpression(), !225)
  store ptr %args, ptr %field20, align 8
    #dbg_declare(ptr poison, !224, !DIExpression(), !226)
  %6 = insertvalue { ptr, ptr } poison, ptr %template, 0, !dbg !227
  %7 = insertvalue { ptr, ptr } %6, ptr %args, 1, !dbg !227
  ret { ptr, ptr } %7, !dbg !227
}

; <core::fmt::Arguments>::new::<31, 1>
; Function Attrs: inlinehint nonlazybind uwtable
define internal { ptr, ptr } @_RINvMs2_NtCsiJgtBcGlDou_4core3fmtNtB6_9Arguments3newKj1f_Kj1_ECs9dAga0YNYgM_17alias_access_test(ptr align 1 %template, ptr align 8 %args) unnamed_addr #0 !dbg !228 {
start:
  %raw_box = alloca %amice.alias.st.5, align 8
  %raw_box1 = alloca %amice.alias.st.6, align 8
  %0 = alloca { ptr, ptr, ptr, ptr, ptr, ptr }, align 8
  %1 = alloca { ptr, ptr, ptr, ptr, ptr, ptr }, align 8
  %slot = getelementptr inbounds nuw { ptr, ptr, ptr, ptr, ptr, ptr }, ptr %1, i32 0, i32 1
  store ptr %raw_box1, ptr %slot, align 8
  %slot2 = getelementptr inbounds nuw { ptr, ptr, ptr, ptr, ptr, ptr }, ptr %1, i32 0, i32 0
  store ptr %raw_box, ptr %slot2, align 8
  %slot3 = getelementptr inbounds nuw { ptr, ptr, ptr, ptr, ptr, ptr }, ptr %1, i32 0, i32 4
  store ptr %raw_box, ptr %slot3, align 8
  %2 = alloca { ptr, ptr, ptr, ptr, ptr, ptr }, align 8
  %slot4 = getelementptr inbounds nuw { ptr, ptr, ptr, ptr, ptr, ptr }, ptr %2, i32 0, i32 5
  store ptr %1, ptr %slot4, align 8
  %slot5 = getelementptr inbounds nuw { ptr, ptr, ptr, ptr, ptr, ptr }, ptr %2, i32 0, i32 1
  store ptr %1, ptr %slot5, align 8
  %slot6 = getelementptr inbounds nuw { ptr, ptr, ptr, ptr, ptr, ptr }, ptr %2, i32 0, i32 0
  store ptr %raw_box, ptr %slot6, align 8
  %slot7 = getelementptr inbounds nuw { ptr, ptr, ptr, ptr, ptr, ptr }, ptr %2, i32 0, i32 2
  store ptr %1, ptr %slot7, align 8
  %3 = alloca { ptr, ptr, ptr, ptr, ptr, ptr }, align 8
  %4 = alloca { ptr, ptr, ptr, ptr, ptr, ptr }, align 8
  %slot8 = getelementptr inbounds nuw { ptr, ptr, ptr, ptr, ptr, ptr }, ptr %4, i32 0, i32 5
  store ptr %0, ptr %slot8, align 8
  %5 = alloca { ptr, ptr, ptr, ptr, ptr, ptr }, align 8
  %slot9 = getelementptr inbounds nuw { ptr, ptr, ptr, ptr, ptr, ptr }, ptr %5, i32 0, i32 3
  store ptr %1, ptr %slot9, align 8
  %slot10 = getelementptr inbounds nuw { ptr, ptr, ptr, ptr, ptr, ptr }, ptr %5, i32 0, i32 0
  store ptr %0, ptr %slot10, align 8
  %slot11 = getelementptr inbounds nuw { ptr, ptr, ptr, ptr, ptr, ptr }, ptr %5, i32 0, i32 1
  store ptr %1, ptr %slot11, align 8
  %slot12 = getelementptr inbounds nuw { ptr, ptr, ptr, ptr, ptr, ptr }, ptr %5, i32 0, i32 2
  store ptr %4, ptr %slot12, align 8
  %slot13 = getelementptr inbounds nuw { ptr, ptr, ptr, ptr, ptr, ptr }, ptr %5, i32 0, i32 5
  store ptr %raw_box, ptr %slot13, align 8
  %callg = call ptr @anon.2cf0c1d40cc4e776c7c5e8652d40a35e.9(ptr %5)
  %ld_next = load ptr, ptr %callg, align 8
  %callg14 = call ptr @anon.2cf0c1d40cc4e776c7c5e8652d40a35e.10(ptr %ld_next)
  %ld_next15 = load ptr, ptr %callg14, align 8
  %field = getelementptr inbounds nuw %amice.alias.st.6, ptr %ld_next15, i32 0, i32 0
  %callg16 = call ptr @anon.2cf0c1d40cc4e776c7c5e8652d40a35e.10(ptr %2)
  %ld_next17 = load ptr, ptr %callg16, align 8
  %callg18 = call ptr @anon.2cf0c1d40cc4e776c7c5e8652d40a35e.11(ptr %ld_next17)
  %ld_next19 = load ptr, ptr %callg18, align 8
  %field20 = getelementptr inbounds nuw %amice.alias.st.5, ptr %ld_next19, i32 0, i32 0
  store ptr %template, ptr %field, align 8
    #dbg_declare(ptr poison, !237, !DIExpression(), !239)
  store ptr %args, ptr %field20, align 8
    #dbg_declare(ptr poison, !238, !DIExpression(), !240)
  %6 = insertvalue { ptr, ptr } poison, ptr %template, 0, !dbg !241
  %7 = insertvalue { ptr, ptr } %6, ptr %args, 1, !dbg !241
  ret { ptr, ptr } %7, !dbg !241
}

; <core::fmt::Arguments>::new::<32, 1>
; Function Attrs: inlinehint nonlazybind uwtable
define internal { ptr, ptr } @_RINvMs2_NtCsiJgtBcGlDou_4core3fmtNtB6_9Arguments3newKj20_Kj1_ECs9dAga0YNYgM_17alias_access_test(ptr align 1 %template, ptr align 8 %args) unnamed_addr #0 !dbg !242 {
start:
  %raw_box = alloca %amice.alias.st.7, align 8
  %0 = alloca { ptr, ptr, ptr, ptr, ptr, ptr }, align 8
  %slot = getelementptr inbounds nuw { ptr, ptr, ptr, ptr, ptr, ptr }, ptr %0, i32 0, i32 5
  store ptr %raw_box, ptr %slot, align 8
  %slot1 = getelementptr inbounds nuw { ptr, ptr, ptr, ptr, ptr, ptr }, ptr %0, i32 0, i32 2
  store ptr %raw_box, ptr %slot1, align 8
  %slot2 = getelementptr inbounds nuw { ptr, ptr, ptr, ptr, ptr, ptr }, ptr %0, i32 0, i32 1
  store ptr %raw_box, ptr %slot2, align 8
  %slot3 = getelementptr inbounds nuw { ptr, ptr, ptr, ptr, ptr, ptr }, ptr %0, i32 0, i32 0
  store ptr %raw_box, ptr %slot3, align 8
  %1 = alloca { ptr, ptr, ptr, ptr, ptr, ptr }, align 8
  %slot4 = getelementptr inbounds nuw { ptr, ptr, ptr, ptr, ptr, ptr }, ptr %1, i32 0, i32 4
  store ptr %0, ptr %slot4, align 8
  %slot5 = getelementptr inbounds nuw { ptr, ptr, ptr, ptr, ptr, ptr }, ptr %1, i32 0, i32 3
  store ptr %0, ptr %slot5, align 8
  %slot6 = getelementptr inbounds nuw { ptr, ptr, ptr, ptr, ptr, ptr }, ptr %1, i32 0, i32 0
  store ptr %0, ptr %slot6, align 8
  %slot7 = getelementptr inbounds nuw { ptr, ptr, ptr, ptr, ptr, ptr }, ptr %1, i32 0, i32 5
  store ptr %0, ptr %slot7, align 8
  %2 = alloca { ptr, ptr, ptr, ptr, ptr, ptr }, align 8
  %slot8 = getelementptr inbounds nuw { ptr, ptr, ptr, ptr, ptr, ptr }, ptr %2, i32 0, i32 2
  store ptr %1, ptr %slot8, align 8
  %slot9 = getelementptr inbounds nuw { ptr, ptr, ptr, ptr, ptr, ptr }, ptr %2, i32 0, i32 4
  store ptr %0, ptr %slot9, align 8
  %slot10 = getelementptr inbounds nuw { ptr, ptr, ptr, ptr, ptr, ptr }, ptr %2, i32 0, i32 3
  store ptr %0, ptr %slot10, align 8
  %callg = call ptr @anon.2cf0c1d40cc4e776c7c5e8652d40a35e.12(ptr %2)
  %ld_next = load ptr, ptr %callg, align 8
  %callg11 = call ptr @anon.2cf0c1d40cc4e776c7c5e8652d40a35e.13(ptr %ld_next)
  %ld_next12 = load ptr, ptr %callg11, align 8
  %callg13 = call ptr @anon.2cf0c1d40cc4e776c7c5e8652d40a35e.12(ptr %ld_next12)
  %ld_next14 = load ptr, ptr %callg13, align 8
  %field = getelementptr inbounds nuw %amice.alias.st.7, ptr %ld_next14, i32 0, i32 1
  %callg15 = call ptr @anon.2cf0c1d40cc4e776c7c5e8652d40a35e.14(ptr %1)
  %ld_next16 = load ptr, ptr %callg15, align 8
  %callg17 = call ptr @anon.2cf0c1d40cc4e776c7c5e8652d40a35e.15(ptr %ld_next16)
  %ld_next18 = load ptr, ptr %callg17, align 8
  %field19 = getelementptr inbounds nuw %amice.alias.st.7, ptr %ld_next18, i32 0, i32 0
  store ptr %template, ptr %field, align 8
    #dbg_declare(ptr poison, !251, !DIExpression(), !253)
  store ptr %args, ptr %field19, align 8
    #dbg_declare(ptr poison, !252, !DIExpression(), !254)
  %3 = insertvalue { ptr, ptr } poison, ptr %template, 0, !dbg !255
  %4 = insertvalue { ptr, ptr } %3, ptr %args, 1, !dbg !255
  ret { ptr, ptr } %4, !dbg !255
}

; <core::fmt::Arguments>::new::<33, 1>
; Function Attrs: inlinehint nonlazybind uwtable
define internal { ptr, ptr } @_RINvMs2_NtCsiJgtBcGlDou_4core3fmtNtB6_9Arguments3newKj21_Kj1_ECs9dAga0YNYgM_17alias_access_test(ptr align 1 %template, ptr align 8 %args) unnamed_addr #0 !dbg !256 {
start:
  %raw_box = alloca %amice.alias.st.8, align 8
  %raw_box1 = alloca %amice.alias.st.9, align 8
  %0 = alloca { ptr, ptr, ptr, ptr, ptr, ptr }, align 8
  %slot = getelementptr inbounds nuw { ptr, ptr, ptr, ptr, ptr, ptr }, ptr %0, i32 0, i32 4
  store ptr %raw_box1, ptr %slot, align 8
  %slot2 = getelementptr inbounds nuw { ptr, ptr, ptr, ptr, ptr, ptr }, ptr %0, i32 0, i32 1
  store ptr %raw_box, ptr %slot2, align 8
  %slot3 = getelementptr inbounds nuw { ptr, ptr, ptr, ptr, ptr, ptr }, ptr %0, i32 0, i32 3
  store ptr %raw_box, ptr %slot3, align 8
  %slot4 = getelementptr inbounds nuw { ptr, ptr, ptr, ptr, ptr, ptr }, ptr %0, i32 0, i32 5
  store ptr %raw_box, ptr %slot4, align 8
  %1 = alloca { ptr, ptr, ptr, ptr, ptr, ptr }, align 8
  %slot5 = getelementptr inbounds nuw { ptr, ptr, ptr, ptr, ptr, ptr }, ptr %1, i32 0, i32 5
  store ptr %raw_box1, ptr %slot5, align 8
  %slot6 = getelementptr inbounds nuw { ptr, ptr, ptr, ptr, ptr, ptr }, ptr %1, i32 0, i32 0
  store ptr %0, ptr %slot6, align 8
  %slot7 = getelementptr inbounds nuw { ptr, ptr, ptr, ptr, ptr, ptr }, ptr %1, i32 0, i32 1
  store ptr %raw_box1, ptr %slot7, align 8
  %2 = alloca { ptr, ptr, ptr, ptr, ptr, ptr }, align 8
  %slot8 = getelementptr inbounds nuw { ptr, ptr, ptr, ptr, ptr, ptr }, ptr %2, i32 0, i32 5
  store ptr %0, ptr %slot8, align 8
  %3 = alloca { ptr, ptr, ptr, ptr, ptr, ptr }, align 8
  %slot9 = getelementptr inbounds nuw { ptr, ptr, ptr, ptr, ptr, ptr }, ptr %3, i32 0, i32 1
  store ptr %raw_box, ptr %slot9, align 8
  %slot10 = getelementptr inbounds nuw { ptr, ptr, ptr, ptr, ptr, ptr }, ptr %3, i32 0, i32 4
  store ptr %1, ptr %slot10, align 8
  %slot11 = getelementptr inbounds nuw { ptr, ptr, ptr, ptr, ptr, ptr }, ptr %3, i32 0, i32 0
  store ptr %raw_box1, ptr %slot11, align 8
  %4 = alloca { ptr, ptr, ptr, ptr, ptr, ptr }, align 8
  %5 = alloca { ptr, ptr, ptr, ptr, ptr, ptr }, align 8
  %slot12 = getelementptr inbounds nuw { ptr, ptr, ptr, ptr, ptr, ptr }, ptr %5, i32 0, i32 2
  store ptr %4, ptr %slot12, align 8
  %slot13 = getelementptr inbounds nuw { ptr, ptr, ptr, ptr, ptr, ptr }, ptr %5, i32 0, i32 0
  store ptr %2, ptr %slot13, align 8
  %slot14 = getelementptr inbounds nuw { ptr, ptr, ptr, ptr, ptr, ptr }, ptr %5, i32 0, i32 3
  store ptr %raw_box1, ptr %slot14, align 8
  %slot15 = getelementptr inbounds nuw { ptr, ptr, ptr, ptr, ptr, ptr }, ptr %5, i32 0, i32 4
  store ptr %0, ptr %slot15, align 8
  %callg = call ptr @anon.2cf0c1d40cc4e776c7c5e8652d40a35e.16(ptr %3)
  %ld_next = load ptr, ptr %callg, align 8
  %field = getelementptr inbounds nuw %amice.alias.st.9, ptr %ld_next, i32 0, i32 0
  %callg16 = call ptr @anon.2cf0c1d40cc4e776c7c5e8652d40a35e.17(ptr %3)
  %ld_next17 = load ptr, ptr %callg16, align 8
  %field18 = getelementptr inbounds nuw %amice.alias.st.8, ptr %ld_next17, i32 0, i32 0
  store ptr %template, ptr %field, align 8
    #dbg_declare(ptr poison, !265, !DIExpression(), !267)
  store ptr %args, ptr %field18, align 8
    #dbg_declare(ptr poison, !266, !DIExpression(), !268)
  %6 = insertvalue { ptr, ptr } poison, ptr %template, 0, !dbg !269
  %7 = insertvalue { ptr, ptr } %6, ptr %args, 1, !dbg !269
  ret { ptr, ptr } %7, !dbg !269
}

; <core::fmt::Arguments>::new::<35, 1>
; Function Attrs: inlinehint nonlazybind uwtable
define internal { ptr, ptr } @_RINvMs2_NtCsiJgtBcGlDou_4core3fmtNtB6_9Arguments3newKj23_Kj1_ECs9dAga0YNYgM_17alias_access_test(ptr align 1 %template, ptr align 8 %args) unnamed_addr #0 !dbg !270 {
start:
  %raw_box = alloca %amice.alias.st.10, align 8
  %0 = alloca { ptr, ptr, ptr, ptr, ptr, ptr }, align 8
  %slot = getelementptr inbounds nuw { ptr, ptr, ptr, ptr, ptr, ptr }, ptr %0, i32 0, i32 0
  store ptr %raw_box, ptr %slot, align 8
  %1 = alloca { ptr, ptr, ptr, ptr, ptr, ptr }, align 8
  %2 = alloca { ptr, ptr, ptr, ptr, ptr, ptr }, align 8
  %callg = call ptr @anon.2cf0c1d40cc4e776c7c5e8652d40a35e.18(ptr %0)
  %ld_next = load ptr, ptr %callg, align 8
  %field = getelementptr inbounds nuw %amice.alias.st.10, ptr %ld_next, i32 0, i32 1
  %field1 = getelementptr inbounds nuw %amice.alias.st.10, ptr %raw_box, i32 0, i32 0
  store ptr %template, ptr %field, align 8
    #dbg_declare(ptr poison, !279, !DIExpression(), !281)
  store ptr %args, ptr %field1, align 8
    #dbg_declare(ptr poison, !280, !DIExpression(), !282)
  %3 = insertvalue { ptr, ptr } poison, ptr %template, 0, !dbg !283
  %4 = insertvalue { ptr, ptr } %3, ptr %args, 1, !dbg !283
  ret { ptr, ptr } %4, !dbg !283
}

; <core::fmt::Arguments>::new::<36, 1>
; Function Attrs: inlinehint nonlazybind uwtable
define internal { ptr, ptr } @_RINvMs2_NtCsiJgtBcGlDou_4core3fmtNtB6_9Arguments3newKj24_Kj1_ECs9dAga0YNYgM_17alias_access_test(ptr align 1 %template, ptr align 8 %args) unnamed_addr #0 !dbg !284 {
start:
  %raw_box = alloca %amice.alias.st.11, align 8
  %raw_box1 = alloca %amice.alias.st.12, align 8
  %0 = alloca { ptr, ptr, ptr, ptr, ptr, ptr }, align 8
  %slot = getelementptr inbounds nuw { ptr, ptr, ptr, ptr, ptr, ptr }, ptr %0, i32 0, i32 4
  store ptr %raw_box1, ptr %slot, align 8
  %slot2 = getelementptr inbounds nuw { ptr, ptr, ptr, ptr, ptr, ptr }, ptr %0, i32 0, i32 2
  store ptr %raw_box, ptr %slot2, align 8
  %slot3 = getelementptr inbounds nuw { ptr, ptr, ptr, ptr, ptr, ptr }, ptr %0, i32 0, i32 0
  store ptr %raw_box1, ptr %slot3, align 8
  %1 = alloca { ptr, ptr, ptr, ptr, ptr, ptr }, align 8
  %slot4 = getelementptr inbounds nuw { ptr, ptr, ptr, ptr, ptr, ptr }, ptr %1, i32 0, i32 4
  store ptr %0, ptr %slot4, align 8
  %slot5 = getelementptr inbounds nuw { ptr, ptr, ptr, ptr, ptr, ptr }, ptr %1, i32 0, i32 5
  store ptr %raw_box1, ptr %slot5, align 8
  %slot6 = getelementptr inbounds nuw { ptr, ptr, ptr, ptr, ptr, ptr }, ptr %1, i32 0, i32 3
  store ptr %raw_box1, ptr %slot6, align 8
  %slot7 = getelementptr inbounds nuw { ptr, ptr, ptr, ptr, ptr, ptr }, ptr %1, i32 0, i32 0
  store ptr %0, ptr %slot7, align 8
  %2 = alloca { ptr, ptr, ptr, ptr, ptr, ptr }, align 8
  %slot8 = getelementptr inbounds nuw { ptr, ptr, ptr, ptr, ptr, ptr }, ptr %2, i32 0, i32 0
  store ptr %0, ptr %slot8, align 8
  %slot9 = getelementptr inbounds nuw { ptr, ptr, ptr, ptr, ptr, ptr }, ptr %2, i32 0, i32 2
  store ptr %raw_box, ptr %slot9, align 8
  %slot10 = getelementptr inbounds nuw { ptr, ptr, ptr, ptr, ptr, ptr }, ptr %2, i32 0, i32 3
  store ptr %0, ptr %slot10, align 8
  %slot11 = getelementptr inbounds nuw { ptr, ptr, ptr, ptr, ptr, ptr }, ptr %2, i32 0, i32 1
  store ptr %1, ptr %slot11, align 8
  %3 = alloca { ptr, ptr, ptr, ptr, ptr, ptr }, align 8
  %slot12 = getelementptr inbounds nuw { ptr, ptr, ptr, ptr, ptr, ptr }, ptr %3, i32 0, i32 3
  store ptr %2, ptr %slot12, align 8
  %slot13 = getelementptr inbounds nuw { ptr, ptr, ptr, ptr, ptr, ptr }, ptr %3, i32 0, i32 2
  store ptr %raw_box, ptr %slot13, align 8
  %slot14 = getelementptr inbounds nuw { ptr, ptr, ptr, ptr, ptr, ptr }, ptr %3, i32 0, i32 4
  store ptr %raw_box1, ptr %slot14, align 8
  %slot15 = getelementptr inbounds nuw { ptr, ptr, ptr, ptr, ptr, ptr }, ptr %3, i32 0, i32 1
  store ptr %2, ptr %slot15, align 8
  %4 = alloca { ptr, ptr, ptr, ptr, ptr, ptr }, align 8
  %slot16 = getelementptr inbounds nuw { ptr, ptr, ptr, ptr, ptr, ptr }, ptr %4, i32 0, i32 0
  store ptr %raw_box1, ptr %slot16, align 8
  %slot17 = getelementptr inbounds nuw { ptr, ptr, ptr, ptr, ptr, ptr }, ptr %4, i32 0, i32 2
  store ptr %raw_box, ptr %slot17, align 8
  %slot18 = getelementptr inbounds nuw { ptr, ptr, ptr, ptr, ptr, ptr }, ptr %4, i32 0, i32 1
  store ptr %raw_box1, ptr %slot18, align 8
  %5 = alloca { ptr, ptr, ptr, ptr, ptr, ptr }, align 8
  %slot19 = getelementptr inbounds nuw { ptr, ptr, ptr, ptr, ptr, ptr }, ptr %5, i32 0, i32 4
  store ptr %2, ptr %slot19, align 8
  %callg = call ptr @anon.2cf0c1d40cc4e776c7c5e8652d40a35e.19(ptr %0)
  %ld_next = load ptr, ptr %callg, align 8
  %field = getelementptr inbounds nuw %amice.alias.st.12, ptr %ld_next, i32 0, i32 0
  %callg20 = call ptr @anon.2cf0c1d40cc4e776c7c5e8652d40a35e.20(ptr %0)
  %ld_next21 = load ptr, ptr %callg20, align 8
  %field22 = getelementptr inbounds nuw %amice.alias.st.11, ptr %ld_next21, i32 0, i32 0
  store ptr %template, ptr %field, align 8
    #dbg_declare(ptr poison, !293, !DIExpression(), !295)
  store ptr %args, ptr %field22, align 8
    #dbg_declare(ptr poison, !294, !DIExpression(), !296)
  %6 = insertvalue { ptr, ptr } poison, ptr %template, 0, !dbg !297
  %7 = insertvalue { ptr, ptr } %6, ptr %args, 1, !dbg !297
  ret { ptr, ptr } %7, !dbg !297
}

; <core::fmt::Arguments>::new::<37, 1>
; Function Attrs: inlinehint nonlazybind uwtable
define internal { ptr, ptr } @_RINvMs2_NtCsiJgtBcGlDou_4core3fmtNtB6_9Arguments3newKj25_Kj1_ECs9dAga0YNYgM_17alias_access_test(ptr align 1 %template, ptr align 8 %args) unnamed_addr #0 !dbg !298 {
start:
  %raw_box = alloca %amice.alias.st.13, align 8
  %0 = alloca { ptr, ptr, ptr, ptr, ptr, ptr }, align 8
  %slot = getelementptr inbounds nuw { ptr, ptr, ptr, ptr, ptr, ptr }, ptr %0, i32 0, i32 2
  store ptr %raw_box, ptr %slot, align 8
  %slot1 = getelementptr inbounds nuw { ptr, ptr, ptr, ptr, ptr, ptr }, ptr %0, i32 0, i32 1
  store ptr %raw_box, ptr %slot1, align 8
  %1 = alloca { ptr, ptr, ptr, ptr, ptr, ptr }, align 8
  %2 = alloca { ptr, ptr, ptr, ptr, ptr, ptr }, align 8
  %slot2 = getelementptr inbounds nuw { ptr, ptr, ptr, ptr, ptr, ptr }, ptr %2, i32 0, i32 5
  store ptr %raw_box, ptr %slot2, align 8
  %slot3 = getelementptr inbounds nuw { ptr, ptr, ptr, ptr, ptr, ptr }, ptr %2, i32 0, i32 3
  store ptr %0, ptr %slot3, align 8
  %slot4 = getelementptr inbounds nuw { ptr, ptr, ptr, ptr, ptr, ptr }, ptr %2, i32 0, i32 4
  store ptr %0, ptr %slot4, align 8
  %field = getelementptr inbounds nuw %amice.alias.st.13, ptr %raw_box, i32 0, i32 1
  %callg = call ptr @anon.2cf0c1d40cc4e776c7c5e8652d40a35e.21(ptr %2)
  %ld_next = load ptr, ptr %callg, align 8
  %field5 = getelementptr inbounds nuw %amice.alias.st.13, ptr %ld_next, i32 0, i32 0
  store ptr %template, ptr %field, align 8
    #dbg_declare(ptr poison, !307, !DIExpression(), !309)
  store ptr %args, ptr %field5, align 8
    #dbg_declare(ptr poison, !308, !DIExpression(), !310)
  %3 = insertvalue { ptr, ptr } poison, ptr %template, 0, !dbg !311
  %4 = insertvalue { ptr, ptr } %3, ptr %args, 1, !dbg !311
  ret { ptr, ptr } %4, !dbg !311
}

; <core::fmt::Arguments>::new::<39, 1>
; Function Attrs: inlinehint nonlazybind uwtable
define internal { ptr, ptr } @_RINvMs2_NtCsiJgtBcGlDou_4core3fmtNtB6_9Arguments3newKj27_Kj1_ECs9dAga0YNYgM_17alias_access_test(ptr align 1 %template, ptr align 8 %args) unnamed_addr #0 !dbg !312 {
start:
  %raw_box = alloca %amice.alias.st.14, align 8
  %0 = alloca { ptr, ptr, ptr, ptr, ptr, ptr }, align 8
  %1 = alloca { ptr, ptr, ptr, ptr, ptr, ptr }, align 8
  %slot = getelementptr inbounds nuw { ptr, ptr, ptr, ptr, ptr, ptr }, ptr %1, i32 0, i32 5
  store ptr %raw_box, ptr %slot, align 8
  %slot1 = getelementptr inbounds nuw { ptr, ptr, ptr, ptr, ptr, ptr }, ptr %1, i32 0, i32 4
  store ptr %0, ptr %slot1, align 8
  %2 = alloca { ptr, ptr, ptr, ptr, ptr, ptr }, align 8
  %slot2 = getelementptr inbounds nuw { ptr, ptr, ptr, ptr, ptr, ptr }, ptr %2, i32 0, i32 3
  store ptr %0, ptr %slot2, align 8
  %slot3 = getelementptr inbounds nuw { ptr, ptr, ptr, ptr, ptr, ptr }, ptr %2, i32 0, i32 4
  store ptr %0, ptr %slot3, align 8
  %field = getelementptr inbounds nuw %amice.alias.st.14, ptr %raw_box, i32 0, i32 1
  %callg = call ptr @anon.2cf0c1d40cc4e776c7c5e8652d40a35e.22(ptr %1)
  %ld_next = load ptr, ptr %callg, align 8
  %field4 = getelementptr inbounds nuw %amice.alias.st.14, ptr %ld_next, i32 0, i32 0
  store ptr %template, ptr %field, align 8
    #dbg_declare(ptr poison, !321, !DIExpression(), !323)
  store ptr %args, ptr %field4, align 8
    #dbg_declare(ptr poison, !322, !DIExpression(), !324)
  %3 = insertvalue { ptr, ptr } poison, ptr %template, 0, !dbg !325
  %4 = insertvalue { ptr, ptr } %3, ptr %args, 1, !dbg !325
  ret { ptr, ptr } %4, !dbg !325
}

; <core::fmt::Arguments>::new::<48, 1>
; Function Attrs: inlinehint nonlazybind uwtable
define internal { ptr, ptr } @_RINvMs2_NtCsiJgtBcGlDou_4core3fmtNtB6_9Arguments3newKj30_Kj1_ECs9dAga0YNYgM_17alias_access_test(ptr align 1 %template, ptr align 8 %args) unnamed_addr #0 !dbg !326 {
start:
  %raw_box = alloca %amice.alias.st.15, align 8
  %0 = alloca { ptr, ptr, ptr, ptr, ptr, ptr }, align 8
  %slot = getelementptr inbounds nuw { ptr, ptr, ptr, ptr, ptr, ptr }, ptr %0, i32 0, i32 2
  store ptr %raw_box, ptr %slot, align 8
  %1 = alloca { ptr, ptr, ptr, ptr, ptr, ptr }, align 8
  %slot1 = getelementptr inbounds nuw { ptr, ptr, ptr, ptr, ptr, ptr }, ptr %1, i32 0, i32 5
  store ptr %0, ptr %slot1, align 8
  %2 = alloca { ptr, ptr, ptr, ptr, ptr, ptr }, align 8
  %slot2 = getelementptr inbounds nuw { ptr, ptr, ptr, ptr, ptr, ptr }, ptr %2, i32 0, i32 1
  store ptr %0, ptr %slot2, align 8
  %slot3 = getelementptr inbounds nuw { ptr, ptr, ptr, ptr, ptr, ptr }, ptr %2, i32 0, i32 4
  store ptr %raw_box, ptr %slot3, align 8
  %slot4 = getelementptr inbounds nuw { ptr, ptr, ptr, ptr, ptr, ptr }, ptr %2, i32 0, i32 5
  store ptr %raw_box, ptr %slot4, align 8
  %slot5 = getelementptr inbounds nuw { ptr, ptr, ptr, ptr, ptr, ptr }, ptr %2, i32 0, i32 2
  store ptr %1, ptr %slot5, align 8
  %slot6 = getelementptr inbounds nuw { ptr, ptr, ptr, ptr, ptr, ptr }, ptr %2, i32 0, i32 0
  store ptr %raw_box, ptr %slot6, align 8
  %callg = call ptr @anon.2cf0c1d40cc4e776c7c5e8652d40a35e.23(ptr %0)
  %ld_next = load ptr, ptr %callg, align 8
  %field = getelementptr inbounds nuw %amice.alias.st.15, ptr %ld_next, i32 0, i32 1
  %callg7 = call ptr @anon.2cf0c1d40cc4e776c7c5e8652d40a35e.24(ptr %1)
  %ld_next8 = load ptr, ptr %callg7, align 8
  %callg9 = call ptr @anon.2cf0c1d40cc4e776c7c5e8652d40a35e.23(ptr %ld_next8)
  %ld_next10 = load ptr, ptr %callg9, align 8
  %field11 = getelementptr inbounds nuw %amice.alias.st.15, ptr %ld_next10, i32 0, i32 0
  store ptr %template, ptr %field, align 8
    #dbg_declare(ptr poison, !335, !DIExpression(), !337)
  store ptr %args, ptr %field11, align 8
    #dbg_declare(ptr poison, !336, !DIExpression(), !338)
  %3 = insertvalue { ptr, ptr } poison, ptr %template, 0, !dbg !339
  %4 = insertvalue { ptr, ptr } %3, ptr %args, 1, !dbg !339
  ret { ptr, ptr } %4, !dbg !339
}

; std::rt::lang_start::<()>
; Function Attrs: nonlazybind uwtable
define hidden i64 @_RINvNtCskEWJ9B2QHD5_3std2rt10lang_startuECs9dAga0YNYgM_17alias_access_test(ptr %main, i64 %argc, ptr %argv, i8 %sigpipe) unnamed_addr #1 !dbg !340 {
start:
  %raw_box = alloca %amice.alias.st.16, align 8
  %raw_box1 = alloca %amice.alias.st.17, align 8
  %raw_box2 = alloca %amice.alias.st.18, align 8
  %raw_box3 = alloca %amice.alias.st.19, align 8
  %0 = alloca { ptr, ptr, ptr, ptr, ptr, ptr }, align 8
  %slot = getelementptr inbounds nuw { ptr, ptr, ptr, ptr, ptr, ptr }, ptr %0, i32 0, i32 3
  store ptr %raw_box3, ptr %slot, align 8
  %slot4 = getelementptr inbounds nuw { ptr, ptr, ptr, ptr, ptr, ptr }, ptr %0, i32 0, i32 0
  store ptr %raw_box2, ptr %slot4, align 8
  %slot5 = getelementptr inbounds nuw { ptr, ptr, ptr, ptr, ptr, ptr }, ptr %0, i32 0, i32 2
  store ptr %raw_box3, ptr %slot5, align 8
  %slot6 = getelementptr inbounds nuw { ptr, ptr, ptr, ptr, ptr, ptr }, ptr %0, i32 0, i32 1
  store ptr %raw_box2, ptr %slot6, align 8
  %1 = alloca { ptr, ptr, ptr, ptr, ptr, ptr }, align 8
  %slot7 = getelementptr inbounds nuw { ptr, ptr, ptr, ptr, ptr, ptr }, ptr %1, i32 0, i32 5
  store ptr %0, ptr %slot7, align 8
  %slot8 = getelementptr inbounds nuw { ptr, ptr, ptr, ptr, ptr, ptr }, ptr %1, i32 0, i32 4
  store ptr %0, ptr %slot8, align 8
  %slot9 = getelementptr inbounds nuw { ptr, ptr, ptr, ptr, ptr, ptr }, ptr %1, i32 0, i32 3
  store ptr %raw_box, ptr %slot9, align 8
  %slot10 = getelementptr inbounds nuw { ptr, ptr, ptr, ptr, ptr, ptr }, ptr %1, i32 0, i32 2
  store ptr %raw_box1, ptr %slot10, align 8
  %slot11 = getelementptr inbounds nuw { ptr, ptr, ptr, ptr, ptr, ptr }, ptr %1, i32 0, i32 0
  store ptr %0, ptr %slot11, align 8
  %2 = alloca { ptr, ptr, ptr, ptr, ptr, ptr }, align 8
  %3 = alloca { ptr, ptr, ptr, ptr, ptr, ptr }, align 8
  %slot12 = getelementptr inbounds nuw { ptr, ptr, ptr, ptr, ptr, ptr }, ptr %3, i32 0, i32 0
  store ptr %0, ptr %slot12, align 8
  %4 = alloca { ptr, ptr, ptr, ptr, ptr, ptr }, align 8
  %5 = alloca { ptr, ptr, ptr, ptr, ptr, ptr }, align 8
  %slot13 = getelementptr inbounds nuw { ptr, ptr, ptr, ptr, ptr, ptr }, ptr %5, i32 0, i32 0
  store ptr %raw_box2, ptr %slot13, align 8
  %slot14 = getelementptr inbounds nuw { ptr, ptr, ptr, ptr, ptr, ptr }, ptr %5, i32 0, i32 5
  store ptr %1, ptr %slot14, align 8
  %slot15 = getelementptr inbounds nuw { ptr, ptr, ptr, ptr, ptr, ptr }, ptr %5, i32 0, i32 1
  store ptr %3, ptr %slot15, align 8
  %slot16 = getelementptr inbounds nuw { ptr, ptr, ptr, ptr, ptr, ptr }, ptr %5, i32 0, i32 2
  store ptr %3, ptr %slot16, align 8
  %6 = alloca { ptr, ptr, ptr, ptr, ptr, ptr }, align 8
  %slot17 = getelementptr inbounds nuw { ptr, ptr, ptr, ptr, ptr, ptr }, ptr %6, i32 0, i32 0
  store ptr %2, ptr %slot17, align 8
  %slot18 = getelementptr inbounds nuw { ptr, ptr, ptr, ptr, ptr, ptr }, ptr %6, i32 0, i32 2
  store ptr %raw_box3, ptr %slot18, align 8
  %slot19 = getelementptr inbounds nuw { ptr, ptr, ptr, ptr, ptr, ptr }, ptr %6, i32 0, i32 5
  store ptr %raw_box1, ptr %slot19, align 8
  %slot20 = getelementptr inbounds nuw { ptr, ptr, ptr, ptr, ptr, ptr }, ptr %6, i32 0, i32 4
  store ptr %raw_box1, ptr %slot20, align 8
  %7 = alloca { ptr, ptr, ptr, ptr, ptr, ptr }, align 8
  %slot21 = getelementptr inbounds nuw { ptr, ptr, ptr, ptr, ptr, ptr }, ptr %7, i32 0, i32 0
  store ptr %2, ptr %slot21, align 8
  %slot22 = getelementptr inbounds nuw { ptr, ptr, ptr, ptr, ptr, ptr }, ptr %7, i32 0, i32 4
  store ptr %6, ptr %slot22, align 8
  %slot23 = getelementptr inbounds nuw { ptr, ptr, ptr, ptr, ptr, ptr }, ptr %7, i32 0, i32 3
  store ptr %1, ptr %slot23, align 8
  %slot24 = getelementptr inbounds nuw { ptr, ptr, ptr, ptr, ptr, ptr }, ptr %7, i32 0, i32 2
  store ptr %3, ptr %slot24, align 8
  %8 = alloca { ptr, ptr, ptr, ptr, ptr, ptr }, align 8
  %slot25 = getelementptr inbounds nuw { ptr, ptr, ptr, ptr, ptr, ptr }, ptr %8, i32 0, i32 2
  store ptr %raw_box2, ptr %slot25, align 8
  %slot26 = getelementptr inbounds nuw { ptr, ptr, ptr, ptr, ptr, ptr }, ptr %8, i32 0, i32 0
  store ptr %raw_box, ptr %slot26, align 8
  %9 = alloca { ptr, ptr, ptr, ptr, ptr, ptr }, align 8
  %slot27 = getelementptr inbounds nuw { ptr, ptr, ptr, ptr, ptr, ptr }, ptr %9, i32 0, i32 1
  store ptr %raw_box1, ptr %slot27, align 8
  %slot28 = getelementptr inbounds nuw { ptr, ptr, ptr, ptr, ptr, ptr }, ptr %9, i32 0, i32 5
  store ptr %5, ptr %slot28, align 8
  %slot29 = getelementptr inbounds nuw { ptr, ptr, ptr, ptr, ptr, ptr }, ptr %9, i32 0, i32 2
  store ptr %3, ptr %slot29, align 8
  %slot30 = getelementptr inbounds nuw { ptr, ptr, ptr, ptr, ptr, ptr }, ptr %9, i32 0, i32 4
  store ptr %2, ptr %slot30, align 8
  %slot31 = getelementptr inbounds nuw { ptr, ptr, ptr, ptr, ptr, ptr }, ptr %9, i32 0, i32 0
  store ptr %3, ptr %slot31, align 8
  %10 = alloca { ptr, ptr, ptr, ptr, ptr, ptr }, align 8
  %slot32 = getelementptr inbounds nuw { ptr, ptr, ptr, ptr, ptr, ptr }, ptr %10, i32 0, i32 2
  store ptr %raw_box, ptr %slot32, align 8
  %slot33 = getelementptr inbounds nuw { ptr, ptr, ptr, ptr, ptr, ptr }, ptr %10, i32 0, i32 5
  store ptr %0, ptr %slot33, align 8
  %slot34 = getelementptr inbounds nuw { ptr, ptr, ptr, ptr, ptr, ptr }, ptr %10, i32 0, i32 0
  store ptr %8, ptr %slot34, align 8
  %slot35 = getelementptr inbounds nuw { ptr, ptr, ptr, ptr, ptr, ptr }, ptr %10, i32 0, i32 3
  store ptr %8, ptr %slot35, align 8
  %slot36 = getelementptr inbounds nuw { ptr, ptr, ptr, ptr, ptr, ptr }, ptr %10, i32 0, i32 1
  store ptr %8, ptr %slot36, align 8
  %11 = alloca { ptr, ptr, ptr, ptr, ptr, ptr }, align 8
  %slot37 = getelementptr inbounds nuw { ptr, ptr, ptr, ptr, ptr, ptr }, ptr %11, i32 0, i32 3
  store ptr %raw_box, ptr %slot37, align 8
  %slot38 = getelementptr inbounds nuw { ptr, ptr, ptr, ptr, ptr, ptr }, ptr %11, i32 0, i32 2
  store ptr %3, ptr %slot38, align 8
  %slot39 = getelementptr inbounds nuw { ptr, ptr, ptr, ptr, ptr, ptr }, ptr %11, i32 0, i32 4
  store ptr %raw_box, ptr %slot39, align 8
  %slot40 = getelementptr inbounds nuw { ptr, ptr, ptr, ptr, ptr, ptr }, ptr %11, i32 0, i32 0
  store ptr %1, ptr %slot40, align 8
  %field = getelementptr inbounds nuw %amice.alias.st.17, ptr %raw_box1, i32 0, i32 0
  %callg = call ptr @anon.2cf0c1d40cc4e776c7c5e8652d40a35e.25(ptr %10)
  %ld_next = load ptr, ptr %callg, align 8
  %callg41 = call ptr @anon.2cf0c1d40cc4e776c7c5e8652d40a35e.26(ptr %ld_next)
  %ld_next42 = load ptr, ptr %callg41, align 8
  %field43 = getelementptr inbounds nuw %amice.alias.st.19, ptr %ld_next42, i32 0, i32 0
  %callg44 = call ptr @anon.2cf0c1d40cc4e776c7c5e8652d40a35e.27(ptr %5)
  %ld_next45 = load ptr, ptr %callg44, align 8
  %callg46 = call ptr @anon.2cf0c1d40cc4e776c7c5e8652d40a35e.28(ptr %ld_next45)
  %ld_next47 = load ptr, ptr %callg46, align 8
  %callg48 = call ptr @anon.2cf0c1d40cc4e776c7c5e8652d40a35e.28(ptr %ld_next47)
  %ld_next49 = load ptr, ptr %callg48, align 8
  %field50 = getelementptr inbounds nuw %amice.alias.st.18, ptr %ld_next49, i32 0, i32 0
  %callg51 = call ptr @anon.2cf0c1d40cc4e776c7c5e8652d40a35e.26(ptr %7)
  %ld_next52 = load ptr, ptr %callg51, align 8
  %callg53 = call ptr @anon.2cf0c1d40cc4e776c7c5e8652d40a35e.26(ptr %ld_next52)
  %ld_next54 = load ptr, ptr %callg53, align 8
  %field55 = getelementptr inbounds nuw %amice.alias.st.16, ptr %ld_next54, i32 0, i32 0
  %callg56 = call ptr @anon.2cf0c1d40cc4e776c7c5e8652d40a35e.25(ptr %5)
  %ld_next57 = load ptr, ptr %callg56, align 8
  %callg58 = call ptr @anon.2cf0c1d40cc4e776c7c5e8652d40a35e.27(ptr %ld_next57)
  %ld_next59 = load ptr, ptr %callg58, align 8
  %field60 = getelementptr inbounds nuw %amice.alias.st.17, ptr %ld_next59, i32 0, i32 1
  %field61 = getelementptr inbounds nuw %amice.alias.st.17, ptr %raw_box1, i32 0, i32 1
  store ptr %main, ptr %field, align 8
    #dbg_declare(ptr poison, !347, !DIExpression(), !351)
  store i64 %argc, ptr %field43, align 8
    #dbg_declare(ptr poison, !348, !DIExpression(), !352)
  store ptr %argv, ptr %field50, align 8
    #dbg_declare(ptr poison, !349, !DIExpression(), !353)
  store i8 %sigpipe, ptr %field55, align 1
    #dbg_declare(ptr poison, !350, !DIExpression(), !354)
  store ptr %main, ptr %field60, align 8, !dbg !355
; call std::rt::lang_start_internal
  %_0 = call i64 @_RNvNtCskEWJ9B2QHD5_3std2rt19lang_start_internal(ptr align 1 %field61, ptr align 8 @vtable.0, i64 %argc, ptr %argv, i8 %sigpipe), !dbg !356
  ret i64 %_0, !dbg !357
}

; core::sync::atomic::atomic_load::<i32>
; Function Attrs: inlinehint nonlazybind uwtable
define internal i32 @_RINvNtNtCsiJgtBcGlDou_4core4sync6atomic11atomic_loadlECs9dAga0YNYgM_17alias_access_test(ptr %dst, i8 %order) unnamed_addr #0 !dbg !358 {
start:
  %raw_box = alloca %amice.alias.st.20, align 8
  %raw_box2 = alloca %amice.alias.st.21, align 8
  %raw_box3 = alloca %amice.alias.st.22, align 8
  %0 = alloca { ptr, ptr, ptr, ptr, ptr, ptr }, align 8
  %slot = getelementptr inbounds nuw { ptr, ptr, ptr, ptr, ptr, ptr }, ptr %0, i32 0, i32 1
  store ptr %raw_box, ptr %slot, align 8
  %slot4 = getelementptr inbounds nuw { ptr, ptr, ptr, ptr, ptr, ptr }, ptr %0, i32 0, i32 3
  store ptr %raw_box, ptr %slot4, align 8
  %slot5 = getelementptr inbounds nuw { ptr, ptr, ptr, ptr, ptr, ptr }, ptr %0, i32 0, i32 0
  store ptr %raw_box2, ptr %slot5, align 8
  %slot6 = getelementptr inbounds nuw { ptr, ptr, ptr, ptr, ptr, ptr }, ptr %0, i32 0, i32 4
  store ptr %raw_box2, ptr %slot6, align 8
  %1 = alloca { ptr, ptr, ptr, ptr, ptr, ptr }, align 8
  %slot7 = getelementptr inbounds nuw { ptr, ptr, ptr, ptr, ptr, ptr }, ptr %1, i32 0, i32 2
  store ptr %raw_box, ptr %slot7, align 8
  %slot8 = getelementptr inbounds nuw { ptr, ptr, ptr, ptr, ptr, ptr }, ptr %1, i32 0, i32 0
  store ptr %0, ptr %slot8, align 8
  %2 = alloca { ptr, ptr, ptr, ptr, ptr, ptr }, align 8
  %slot9 = getelementptr inbounds nuw { ptr, ptr, ptr, ptr, ptr, ptr }, ptr %2, i32 0, i32 1
  store ptr %raw_box2, ptr %slot9, align 8
  %slot10 = getelementptr inbounds nuw { ptr, ptr, ptr, ptr, ptr, ptr }, ptr %2, i32 0, i32 2
  store ptr %raw_box2, ptr %slot10, align 8
  %slot11 = getelementptr inbounds nuw { ptr, ptr, ptr, ptr, ptr, ptr }, ptr %2, i32 0, i32 0
  store ptr %1, ptr %slot11, align 8
  %3 = alloca { ptr, ptr, ptr, ptr, ptr, ptr }, align 8
  %slot12 = getelementptr inbounds nuw { ptr, ptr, ptr, ptr, ptr, ptr }, ptr %3, i32 0, i32 3
  store ptr %1, ptr %slot12, align 8
  %4 = alloca { ptr, ptr, ptr, ptr, ptr, ptr }, align 8
  %slot13 = getelementptr inbounds nuw { ptr, ptr, ptr, ptr, ptr, ptr }, ptr %4, i32 0, i32 0
  store ptr %raw_box, ptr %slot13, align 8
  %slot14 = getelementptr inbounds nuw { ptr, ptr, ptr, ptr, ptr, ptr }, ptr %4, i32 0, i32 4
  store ptr %2, ptr %slot14, align 8
  %5 = alloca { ptr, ptr, ptr, ptr, ptr, ptr }, align 8
  %slot15 = getelementptr inbounds nuw { ptr, ptr, ptr, ptr, ptr, ptr }, ptr %5, i32 0, i32 1
  store ptr %raw_box3, ptr %slot15, align 8
  %slot16 = getelementptr inbounds nuw { ptr, ptr, ptr, ptr, ptr, ptr }, ptr %5, i32 0, i32 3
  store ptr %raw_box, ptr %slot16, align 8
  %slot17 = getelementptr inbounds nuw { ptr, ptr, ptr, ptr, ptr, ptr }, ptr %5, i32 0, i32 0
  store ptr %4, ptr %slot17, align 8
  %6 = alloca { ptr, ptr, ptr, ptr, ptr, ptr }, align 8
  %slot18 = getelementptr inbounds nuw { ptr, ptr, ptr, ptr, ptr, ptr }, ptr %6, i32 0, i32 2
  store ptr %4, ptr %slot18, align 8
  %slot19 = getelementptr inbounds nuw { ptr, ptr, ptr, ptr, ptr, ptr }, ptr %6, i32 0, i32 1
  store ptr %raw_box3, ptr %slot19, align 8
  %slot20 = getelementptr inbounds nuw { ptr, ptr, ptr, ptr, ptr, ptr }, ptr %6, i32 0, i32 5
  store ptr %0, ptr %slot20, align 8
  %slot21 = getelementptr inbounds nuw { ptr, ptr, ptr, ptr, ptr, ptr }, ptr %6, i32 0, i32 3
  store ptr %raw_box3, ptr %slot21, align 8
  %slot22 = getelementptr inbounds nuw { ptr, ptr, ptr, ptr, ptr, ptr }, ptr %6, i32 0, i32 4
  store ptr %1, ptr %slot22, align 8
  %7 = alloca { ptr, ptr, ptr, ptr, ptr, ptr }, align 8
  %slot23 = getelementptr inbounds nuw { ptr, ptr, ptr, ptr, ptr, ptr }, ptr %7, i32 0, i32 0
  store ptr %raw_box3, ptr %slot23, align 8
  %slot24 = getelementptr inbounds nuw { ptr, ptr, ptr, ptr, ptr, ptr }, ptr %7, i32 0, i32 4
  store ptr %raw_box2, ptr %slot24, align 8
  %slot25 = getelementptr inbounds nuw { ptr, ptr, ptr, ptr, ptr, ptr }, ptr %7, i32 0, i32 3
  store ptr %6, ptr %slot25, align 8
  %slot26 = getelementptr inbounds nuw { ptr, ptr, ptr, ptr, ptr, ptr }, ptr %7, i32 0, i32 1
  store ptr %1, ptr %slot26, align 8
  %slot27 = getelementptr inbounds nuw { ptr, ptr, ptr, ptr, ptr, ptr }, ptr %7, i32 0, i32 5
  store ptr %3, ptr %slot27, align 8
  %8 = alloca { ptr, ptr, ptr, ptr, ptr, ptr }, align 8
  %slot28 = getelementptr inbounds nuw { ptr, ptr, ptr, ptr, ptr, ptr }, ptr %8, i32 0, i32 2
  store ptr %6, ptr %slot28, align 8
  %slot29 = getelementptr inbounds nuw { ptr, ptr, ptr, ptr, ptr, ptr }, ptr %8, i32 0, i32 0
  store ptr %raw_box2, ptr %slot29, align 8
  %callg = call ptr @anon.2cf0c1d40cc4e776c7c5e8652d40a35e.29(ptr %6)
  %ld_next = load ptr, ptr %callg, align 8
  %field = getelementptr inbounds nuw %amice.alias.st.22, ptr %ld_next, i32 0, i32 2
  %callg30 = call ptr @anon.2cf0c1d40cc4e776c7c5e8652d40a35e.29(ptr %3)
  %ld_next31 = load ptr, ptr %callg30, align 8
  %callg32 = call ptr @anon.2cf0c1d40cc4e776c7c5e8652d40a35e.30(ptr %ld_next31)
  %ld_next33 = load ptr, ptr %callg32, align 8
  %callg34 = call ptr @anon.2cf0c1d40cc4e776c7c5e8652d40a35e.30(ptr %ld_next33)
  %ld_next35 = load ptr, ptr %callg34, align 8
  %field36 = getelementptr inbounds nuw %amice.alias.st.21, ptr %ld_next35, i32 0, i32 0
  %callg37 = call ptr @anon.2cf0c1d40cc4e776c7c5e8652d40a35e.29(ptr %5)
  %ld_next38 = load ptr, ptr %callg37, align 8
  %field39 = getelementptr inbounds nuw %amice.alias.st.20, ptr %ld_next38, i32 0, i32 0
  %callg40 = call ptr @anon.2cf0c1d40cc4e776c7c5e8652d40a35e.31(ptr %6)
  %ld_next41 = load ptr, ptr %callg40, align 8
  %field42 = getelementptr inbounds nuw %amice.alias.st.22, ptr %ld_next41, i32 0, i32 1
  %callg43 = call ptr @anon.2cf0c1d40cc4e776c7c5e8652d40a35e.29(ptr %6)
  %ld_next44 = load ptr, ptr %callg43, align 8
  %field45 = getelementptr inbounds nuw %amice.alias.st.22, ptr %ld_next44, i32 0, i32 1
  %field46 = getelementptr inbounds nuw %amice.alias.st.20, ptr %raw_box, i32 0, i32 0
  %callg47 = call ptr @anon.2cf0c1d40cc4e776c7c5e8652d40a35e.31(ptr %5)
  %ld_next48 = load ptr, ptr %callg47, align 8
  %field49 = getelementptr inbounds nuw %amice.alias.st.22, ptr %ld_next48, i32 0, i32 0
  %callg50 = call ptr @anon.2cf0c1d40cc4e776c7c5e8652d40a35e.29(ptr %6)
  %ld_next51 = load ptr, ptr %callg50, align 8
  %field52 = getelementptr inbounds nuw %amice.alias.st.22, ptr %ld_next51, i32 0, i32 0
  %callg53 = call ptr @anon.2cf0c1d40cc4e776c7c5e8652d40a35e.32(ptr %6)
  %ld_next54 = load ptr, ptr %callg53, align 8
  %callg55 = call ptr @anon.2cf0c1d40cc4e776c7c5e8652d40a35e.30(ptr %ld_next54)
  %ld_next56 = load ptr, ptr %callg55, align 8
  %callg57 = call ptr @anon.2cf0c1d40cc4e776c7c5e8652d40a35e.29(ptr %ld_next56)
  %ld_next58 = load ptr, ptr %callg57, align 8
  %field59 = getelementptr inbounds nuw %amice.alias.st.20, ptr %ld_next58, i32 0, i32 0
  %callg60 = call ptr @anon.2cf0c1d40cc4e776c7c5e8652d40a35e.30(ptr %2)
  %ld_next61 = load ptr, ptr %callg60, align 8
  %callg62 = call ptr @anon.2cf0c1d40cc4e776c7c5e8652d40a35e.30(ptr %ld_next61)
  %ld_next63 = load ptr, ptr %callg62, align 8
  %callg64 = call ptr @anon.2cf0c1d40cc4e776c7c5e8652d40a35e.29(ptr %ld_next63)
  %ld_next65 = load ptr, ptr %callg64, align 8
  %field66 = getelementptr inbounds nuw %amice.alias.st.20, ptr %ld_next65, i32 0, i32 0
  store ptr %dst, ptr %field, align 8
    #dbg_declare(ptr poison, !363, !DIExpression(), !365)
  store i8 %order, ptr %field36, align 1
    #dbg_declare(ptr poison, !364, !DIExpression(), !366)
  %_3 = zext i8 %order to i64, !dbg !367
  switch i64 %_3, label %bb1 [
    i64 0, label %bb6
    i64 1, label %bb3
    i64 2, label %bb5
    i64 3, label %bb2
    i64 4, label %bb4
  ], !dbg !368

bb1:                                              ; preds = %start
  unreachable, !dbg !367

bb6:                                              ; preds = %start
  %9 = load atomic i32, ptr %dst monotonic, align 4, !dbg !369
  store i32 %9, ptr %field39, align 4, !dbg !369
  br label %bb7, !dbg !369

bb3:                                              ; preds = %start
  store ptr @alloc_9cd20c3e415f4d39f0ceb012cb758628, ptr %field42, align 8, !dbg !370
  %10 = getelementptr inbounds i8, ptr %field45, i64 8, !dbg !370
  store i64 40, ptr %10, align 8, !dbg !370
    #dbg_declare(ptr poison, !371, !DIExpression(), !382)
    #dbg_declare(ptr poison, !383, !DIExpression(), !391)
    #dbg_declare(ptr poison, !394, !DIExpression(), !399)
    #dbg_declare(ptr poison, !401, !DIExpression(), !410)
; call core::panicking::panic_fmt
  call void @_RNvNtCsiJgtBcGlDou_4core9panicking9panic_fmt(ptr @alloc_9cd20c3e415f4d39f0ceb012cb758628, ptr inttoptr (i64 81 to ptr), ptr align 8 @alloc_769d03960550b0a5999b027019a5b9e9) #13, !dbg !370
  unreachable, !dbg !370

bb5:                                              ; preds = %start
  %11 = load atomic i32, ptr %dst acquire, align 4, !dbg !413
  store i32 %11, ptr %field46, align 4, !dbg !413
  br label %bb7, !dbg !413

bb2:                                              ; preds = %start
  store ptr @alloc_96ab912d0054b46da785b206a96c9a45, ptr %field49, align 8, !dbg !414
  %12 = getelementptr inbounds i8, ptr %field52, i64 8, !dbg !414
  store i64 49, ptr %12, align 8, !dbg !414
    #dbg_declare(ptr poison, !371, !DIExpression(), !415)
    #dbg_declare(ptr poison, !383, !DIExpression(), !416)
    #dbg_declare(ptr poison, !394, !DIExpression(), !418)
    #dbg_declare(ptr poison, !401, !DIExpression(), !420)
; call core::panicking::panic_fmt
  call void @_RNvNtCsiJgtBcGlDou_4core9panicking9panic_fmt(ptr @alloc_96ab912d0054b46da785b206a96c9a45, ptr inttoptr (i64 99 to ptr), ptr align 8 @alloc_84e3bcff8ede4356c0613305c7684350) #13, !dbg !414
  unreachable, !dbg !414

bb4:                                              ; preds = %start
  %13 = load atomic i32, ptr %dst seq_cst, align 4, !dbg !422
  store i32 %13, ptr %field59, align 4, !dbg !422
  br label %bb7, !dbg !422

bb7:                                              ; preds = %bb4, %bb5, %bb6
  %14 = load i32, ptr %field66, align 4, !dbg !423
  ret i32 %14, !dbg !423
}

; core::sync::atomic::atomic_store::<i32>
; Function Attrs: inlinehint nonlazybind uwtable
define internal void @_RINvNtNtCsiJgtBcGlDou_4core4sync6atomic12atomic_storelECs9dAga0YNYgM_17alias_access_test(ptr %dst, i32 %val, i8 %order) unnamed_addr #0 !dbg !424 {
start:
  %raw_box = alloca %amice.alias.st.23, align 8
  %raw_box2 = alloca %amice.alias.st.24, align 8
  %raw_box3 = alloca %amice.alias.st.25, align 8
  %0 = alloca { ptr, ptr, ptr, ptr, ptr, ptr }, align 8
  %slot = getelementptr inbounds nuw { ptr, ptr, ptr, ptr, ptr, ptr }, ptr %0, i32 0, i32 4
  store ptr %raw_box3, ptr %slot, align 8
  %1 = alloca { ptr, ptr, ptr, ptr, ptr, ptr }, align 8
  %slot4 = getelementptr inbounds nuw { ptr, ptr, ptr, ptr, ptr, ptr }, ptr %1, i32 0, i32 4
  store ptr %raw_box, ptr %slot4, align 8
  %slot5 = getelementptr inbounds nuw { ptr, ptr, ptr, ptr, ptr, ptr }, ptr %1, i32 0, i32 3
  store ptr %raw_box, ptr %slot5, align 8
  %slot6 = getelementptr inbounds nuw { ptr, ptr, ptr, ptr, ptr, ptr }, ptr %1, i32 0, i32 0
  store ptr %raw_box, ptr %slot6, align 8
  %slot7 = getelementptr inbounds nuw { ptr, ptr, ptr, ptr, ptr, ptr }, ptr %1, i32 0, i32 1
  store ptr %raw_box2, ptr %slot7, align 8
  %slot8 = getelementptr inbounds nuw { ptr, ptr, ptr, ptr, ptr, ptr }, ptr %1, i32 0, i32 2
  store ptr %raw_box, ptr %slot8, align 8
  %2 = alloca { ptr, ptr, ptr, ptr, ptr, ptr }, align 8
  %slot9 = getelementptr inbounds nuw { ptr, ptr, ptr, ptr, ptr, ptr }, ptr %2, i32 0, i32 4
  store ptr %1, ptr %slot9, align 8
  %slot10 = getelementptr inbounds nuw { ptr, ptr, ptr, ptr, ptr, ptr }, ptr %2, i32 0, i32 1
  store ptr %1, ptr %slot10, align 8
  %slot11 = getelementptr inbounds nuw { ptr, ptr, ptr, ptr, ptr, ptr }, ptr %2, i32 0, i32 0
  store ptr %raw_box2, ptr %slot11, align 8
  %slot12 = getelementptr inbounds nuw { ptr, ptr, ptr, ptr, ptr, ptr }, ptr %2, i32 0, i32 5
  store ptr %raw_box, ptr %slot12, align 8
  %3 = alloca { ptr, ptr, ptr, ptr, ptr, ptr }, align 8
  %slot13 = getelementptr inbounds nuw { ptr, ptr, ptr, ptr, ptr, ptr }, ptr %3, i32 0, i32 1
  store ptr %raw_box2, ptr %slot13, align 8
  %slot14 = getelementptr inbounds nuw { ptr, ptr, ptr, ptr, ptr, ptr }, ptr %3, i32 0, i32 5
  store ptr %2, ptr %slot14, align 8
  %slot15 = getelementptr inbounds nuw { ptr, ptr, ptr, ptr, ptr, ptr }, ptr %3, i32 0, i32 0
  store ptr %raw_box, ptr %slot15, align 8
  %4 = alloca { ptr, ptr, ptr, ptr, ptr, ptr }, align 8
  %slot16 = getelementptr inbounds nuw { ptr, ptr, ptr, ptr, ptr, ptr }, ptr %4, i32 0, i32 2
  store ptr %raw_box, ptr %slot16, align 8
  %5 = alloca { ptr, ptr, ptr, ptr, ptr, ptr }, align 8
  %slot17 = getelementptr inbounds nuw { ptr, ptr, ptr, ptr, ptr, ptr }, ptr %5, i32 0, i32 3
  store ptr %raw_box2, ptr %slot17, align 8
  %slot18 = getelementptr inbounds nuw { ptr, ptr, ptr, ptr, ptr, ptr }, ptr %5, i32 0, i32 0
  store ptr %4, ptr %slot18, align 8
  %slot19 = getelementptr inbounds nuw { ptr, ptr, ptr, ptr, ptr, ptr }, ptr %5, i32 0, i32 4
  store ptr %0, ptr %slot19, align 8
  %6 = alloca { ptr, ptr, ptr, ptr, ptr, ptr }, align 8
  %slot20 = getelementptr inbounds nuw { ptr, ptr, ptr, ptr, ptr, ptr }, ptr %6, i32 0, i32 5
  store ptr %3, ptr %slot20, align 8
  %slot21 = getelementptr inbounds nuw { ptr, ptr, ptr, ptr, ptr, ptr }, ptr %6, i32 0, i32 3
  store ptr %raw_box3, ptr %slot21, align 8
  %7 = alloca { ptr, ptr, ptr, ptr, ptr, ptr }, align 8
  %slot22 = getelementptr inbounds nuw { ptr, ptr, ptr, ptr, ptr, ptr }, ptr %7, i32 0, i32 0
  store ptr %5, ptr %slot22, align 8
  %slot23 = getelementptr inbounds nuw { ptr, ptr, ptr, ptr, ptr, ptr }, ptr %7, i32 0, i32 2
  store ptr %5, ptr %slot23, align 8
  %8 = alloca { ptr, ptr, ptr, ptr, ptr, ptr }, align 8
  %slot24 = getelementptr inbounds nuw { ptr, ptr, ptr, ptr, ptr, ptr }, ptr %8, i32 0, i32 0
  store ptr %2, ptr %slot24, align 8
  %callg = call ptr @anon.2cf0c1d40cc4e776c7c5e8652d40a35e.33(ptr %0)
  %ld_next = load ptr, ptr %callg, align 8
  %field = getelementptr inbounds nuw %amice.alias.st.25, ptr %ld_next, i32 0, i32 1
  %callg25 = call ptr @anon.2cf0c1d40cc4e776c7c5e8652d40a35e.34(ptr %4)
  %ld_next26 = load ptr, ptr %callg25, align 8
  %field27 = getelementptr inbounds nuw %amice.alias.st.23, ptr %ld_next26, i32 0, i32 1
  %field28 = getelementptr inbounds nuw %amice.alias.st.24, ptr %raw_box2, i32 0, i32 0
  %callg29 = call ptr @anon.2cf0c1d40cc4e776c7c5e8652d40a35e.35(ptr %6)
  %ld_next30 = load ptr, ptr %callg29, align 8
  %field31 = getelementptr inbounds nuw %amice.alias.st.25, ptr %ld_next30, i32 0, i32 0
  %field32 = getelementptr inbounds nuw %amice.alias.st.25, ptr %raw_box3, i32 0, i32 0
  %callg33 = call ptr @anon.2cf0c1d40cc4e776c7c5e8652d40a35e.36(ptr %3)
  %ld_next34 = load ptr, ptr %callg33, align 8
  %field35 = getelementptr inbounds nuw %amice.alias.st.23, ptr %ld_next34, i32 0, i32 0
  %callg36 = call ptr @anon.2cf0c1d40cc4e776c7c5e8652d40a35e.36(ptr %8)
  %ld_next37 = load ptr, ptr %callg36, align 8
  %callg38 = call ptr @anon.2cf0c1d40cc4e776c7c5e8652d40a35e.37(ptr %ld_next37)
  %ld_next39 = load ptr, ptr %callg38, align 8
  %callg40 = call ptr @anon.2cf0c1d40cc4e776c7c5e8652d40a35e.34(ptr %ld_next39)
  %ld_next41 = load ptr, ptr %callg40, align 8
  %field42 = getelementptr inbounds nuw %amice.alias.st.23, ptr %ld_next41, i32 0, i32 0
  store ptr %dst, ptr %field, align 8
    #dbg_declare(ptr poison, !429, !DIExpression(), !432)
  store i32 %val, ptr %field27, align 4
    #dbg_declare(ptr poison, !430, !DIExpression(), !433)
  store i8 %order, ptr %field28, align 1
    #dbg_declare(ptr poison, !431, !DIExpression(), !434)
  %_4 = zext i8 %order to i64, !dbg !435
  switch i64 %_4, label %bb1 [
    i64 0, label %bb6
    i64 1, label %bb5
    i64 2, label %bb3
    i64 3, label %bb2
    i64 4, label %bb4
  ], !dbg !436

bb1:                                              ; preds = %start
  unreachable, !dbg !435

bb6:                                              ; preds = %start
  store atomic i32 %val, ptr %dst monotonic, align 4, !dbg !437
  br label %bb7, !dbg !437

bb5:                                              ; preds = %start
  store atomic i32 %val, ptr %dst release, align 4, !dbg !438
  br label %bb7, !dbg !438

bb3:                                              ; preds = %start
  store ptr @alloc_bf39103a6db665396aab4632362d9353, ptr %field31, align 8, !dbg !439
  %9 = getelementptr inbounds i8, ptr %field32, i64 8, !dbg !439
  store i64 42, ptr %9, align 8, !dbg !439
    #dbg_declare(ptr poison, !440, !DIExpression(), !443)
    #dbg_declare(ptr poison, !444, !DIExpression(), !447)
    #dbg_declare(ptr poison, !450, !DIExpression(), !453)
    #dbg_declare(ptr poison, !455, !DIExpression(), !458)
; call core::panicking::panic_fmt
  call void @_RNvNtCsiJgtBcGlDou_4core9panicking9panic_fmt(ptr @alloc_bf39103a6db665396aab4632362d9353, ptr inttoptr (i64 85 to ptr), ptr align 8 @alloc_be9aaf323d0b1579e81ed3ecf187c5fa) #13, !dbg !439
  unreachable, !dbg !439

bb2:                                              ; preds = %start
  store ptr @alloc_00c0bce0fa6327f8ec8e69d6d765d508, ptr %field35, align 8, !dbg !461
  %10 = getelementptr inbounds i8, ptr %field42, i64 8, !dbg !461
  store i64 50, ptr %10, align 8, !dbg !461
    #dbg_declare(ptr poison, !440, !DIExpression(), !462)
    #dbg_declare(ptr poison, !444, !DIExpression(), !463)
    #dbg_declare(ptr poison, !450, !DIExpression(), !465)
    #dbg_declare(ptr poison, !455, !DIExpression(), !467)
; call core::panicking::panic_fmt
  call void @_RNvNtCsiJgtBcGlDou_4core9panicking9panic_fmt(ptr @alloc_00c0bce0fa6327f8ec8e69d6d765d508, ptr inttoptr (i64 101 to ptr), ptr align 8 @alloc_c99bba020f88fe2b9c3b1fdd4ab0cf62) #13, !dbg !461
  unreachable, !dbg !461

bb4:                                              ; preds = %start
  store atomic i32 %val, ptr %dst seq_cst, align 4, !dbg !469
  br label %bb7, !dbg !469

bb7:                                              ; preds = %bb4, %bb5, %bb6
  ret void, !dbg !470
}

; std::sys::backtrace::__rust_begin_short_backtrace::<fn(), ()>
; Function Attrs: noinline nonlazybind uwtable
define internal void @_RINvNtNtCskEWJ9B2QHD5_3std3sys9backtrace28___rust_begin_short_backtraceFEuuECs9dAga0YNYgM_17alias_access_test(ptr %f) unnamed_addr #2 !dbg !471 {
start:
  %raw_box = alloca %amice.alias.st.26, align 8
  %raw_box1 = alloca %amice.alias.st.27, align 8
  %0 = alloca { ptr, ptr, ptr, ptr, ptr, ptr }, align 8
  %slot = getelementptr inbounds nuw { ptr, ptr, ptr, ptr, ptr, ptr }, ptr %0, i32 0, i32 4
  store ptr %raw_box, ptr %slot, align 8
  %slot2 = getelementptr inbounds nuw { ptr, ptr, ptr, ptr, ptr, ptr }, ptr %0, i32 0, i32 2
  store ptr %raw_box1, ptr %slot2, align 8
  %slot3 = getelementptr inbounds nuw { ptr, ptr, ptr, ptr, ptr, ptr }, ptr %0, i32 0, i32 3
  store ptr %raw_box1, ptr %slot3, align 8
  %1 = alloca { ptr, ptr, ptr, ptr, ptr, ptr }, align 8
  %slot4 = getelementptr inbounds nuw { ptr, ptr, ptr, ptr, ptr, ptr }, ptr %1, i32 0, i32 2
  store ptr %raw_box1, ptr %slot4, align 8
  %slot5 = getelementptr inbounds nuw { ptr, ptr, ptr, ptr, ptr, ptr }, ptr %1, i32 0, i32 0
  store ptr %raw_box1, ptr %slot5, align 8
  %2 = alloca { ptr, ptr, ptr, ptr, ptr, ptr }, align 8
  %slot6 = getelementptr inbounds nuw { ptr, ptr, ptr, ptr, ptr, ptr }, ptr %2, i32 0, i32 1
  store ptr %raw_box1, ptr %slot6, align 8
  %slot7 = getelementptr inbounds nuw { ptr, ptr, ptr, ptr, ptr, ptr }, ptr %2, i32 0, i32 0
  store ptr %1, ptr %slot7, align 8
  %slot8 = getelementptr inbounds nuw { ptr, ptr, ptr, ptr, ptr, ptr }, ptr %2, i32 0, i32 5
  store ptr %1, ptr %slot8, align 8
  %slot9 = getelementptr inbounds nuw { ptr, ptr, ptr, ptr, ptr, ptr }, ptr %2, i32 0, i32 3
  store ptr %raw_box, ptr %slot9, align 8
  %slot10 = getelementptr inbounds nuw { ptr, ptr, ptr, ptr, ptr, ptr }, ptr %2, i32 0, i32 2
  store ptr %raw_box, ptr %slot10, align 8
  %3 = alloca { ptr, ptr, ptr, ptr, ptr, ptr }, align 8
  %slot11 = getelementptr inbounds nuw { ptr, ptr, ptr, ptr, ptr, ptr }, ptr %3, i32 0, i32 1
  store ptr %raw_box, ptr %slot11, align 8
  %4 = alloca { ptr, ptr, ptr, ptr, ptr, ptr }, align 8
  %5 = alloca { ptr, ptr, ptr, ptr, ptr, ptr }, align 8
  %slot12 = getelementptr inbounds nuw { ptr, ptr, ptr, ptr, ptr, ptr }, ptr %5, i32 0, i32 1
  store ptr %4, ptr %slot12, align 8
  %callg = call ptr @anon.2cf0c1d40cc4e776c7c5e8652d40a35e.38(ptr %2)
  %ld_next = load ptr, ptr %callg, align 8
  %callg13 = call ptr @anon.2cf0c1d40cc4e776c7c5e8652d40a35e.38(ptr %ld_next)
  %ld_next14 = load ptr, ptr %callg13, align 8
  %field = getelementptr inbounds nuw %amice.alias.st.27, ptr %ld_next14, i32 0, i32 0
    #dbg_declare(ptr poison, !479, !DIExpression(), !483)
  store ptr %f, ptr %field, align 8
    #dbg_declare(ptr poison, !478, !DIExpression(), !484)
    #dbg_declare(ptr poison, !485, !DIExpression(), !492)
; call <fn() as core::ops::function::FnOnce<()>>::call_once
  call void @_RNvYFEuINtNtNtCsiJgtBcGlDou_4core3ops8function6FnOnceuE9call_onceCs9dAga0YNYgM_17alias_access_test(ptr %f) #14, !dbg !494
  call void asm sideeffect "", "~{memory}"(), !dbg !495, !srcloc !496
  ret void, !dbg !497
}

; std::rt::lang_start::<()>::{closure#0}
; Function Attrs: inlinehint nonlazybind uwtable
define internal i32 @_RNCINvNtCskEWJ9B2QHD5_3std2rt10lang_startuE0Cs9dAga0YNYgM_17alias_access_test(ptr align 8 %_1) unnamed_addr #0 !dbg !498 {
start:
  %raw_box = alloca %amice.alias.st.28, align 8
  %0 = alloca { ptr, ptr, ptr, ptr, ptr, ptr }, align 8
  %slot = getelementptr inbounds nuw { ptr, ptr, ptr, ptr, ptr, ptr }, ptr %0, i32 0, i32 2
  store ptr %raw_box, ptr %slot, align 8
  %slot1 = getelementptr inbounds nuw { ptr, ptr, ptr, ptr, ptr, ptr }, ptr %0, i32 0, i32 0
  store ptr %raw_box, ptr %slot1, align 8
  %1 = alloca { ptr, ptr, ptr, ptr, ptr, ptr }, align 8
  %slot2 = getelementptr inbounds nuw { ptr, ptr, ptr, ptr, ptr, ptr }, ptr %1, i32 0, i32 4
  store ptr %raw_box, ptr %slot2, align 8
  %2 = alloca { ptr, ptr, ptr, ptr, ptr, ptr }, align 8
  %field = getelementptr inbounds nuw %amice.alias.st.28, ptr %raw_box, i32 0, i32 1
  %callg = call ptr @anon.2cf0c1d40cc4e776c7c5e8652d40a35e.39(ptr %0)
  %ld_next = load ptr, ptr %callg, align 8
  %field3 = getelementptr inbounds nuw %amice.alias.st.28, ptr %ld_next, i32 0, i32 0
  store ptr %_1, ptr %field, align 8
    #dbg_declare(ptr poison, !503, !DIExpression(DW_OP_deref), !504)
  %_4 = load ptr, ptr %_1, align 8, !dbg !505
; call std::sys::backtrace::__rust_begin_short_backtrace::<fn(), ()>
  call void @_RINvNtNtCskEWJ9B2QHD5_3std3sys9backtrace28___rust_begin_short_backtraceFEuuECs9dAga0YNYgM_17alias_access_test(ptr %_4) #15, !dbg !506
; call <() as std::process::Termination>::report
  %self = call i8 @_RNvXsZ_NtCskEWJ9B2QHD5_3std7processuNtB5_11Termination6reportCs9dAga0YNYgM_17alias_access_test() #14, !dbg !507
  store i8 %self, ptr %field3, align 1, !dbg !507
    #dbg_declare(ptr poison, !508, !DIExpression(), !525)
  %_0 = zext i8 %self to i32, !dbg !527
  ret i32 %_0, !dbg !535
}

; <std::rt::lang_start<()>::{closure#0} as core::ops::function::FnOnce<()>>::call_once::{shim:vtable#0}
; Function Attrs: inlinehint nonlazybind uwtable
define internal i32 @_RNSNvYNCINvNtCskEWJ9B2QHD5_3std2rt10lang_startuE0INtNtNtCsiJgtBcGlDou_4core3ops8function6FnOnceuE9call_once6vtableCs9dAga0YNYgM_17alias_access_test(ptr %_1) unnamed_addr #0 !dbg !536 {
start:
  %raw_box = alloca %amice.alias.st.29, align 8
  %0 = alloca { ptr, ptr, ptr, ptr, ptr, ptr }, align 8
  %slot = getelementptr inbounds nuw { ptr, ptr, ptr, ptr, ptr, ptr }, ptr %0, i32 0, i32 3
  store ptr %raw_box, ptr %slot, align 8
  %slot1 = getelementptr inbounds nuw { ptr, ptr, ptr, ptr, ptr, ptr }, ptr %0, i32 0, i32 1
  store ptr %raw_box, ptr %slot1, align 8
  %slot2 = getelementptr inbounds nuw { ptr, ptr, ptr, ptr, ptr, ptr }, ptr %0, i32 0, i32 2
  store ptr %raw_box, ptr %slot2, align 8
  %slot3 = getelementptr inbounds nuw { ptr, ptr, ptr, ptr, ptr, ptr }, ptr %0, i32 0, i32 5
  store ptr %raw_box, ptr %slot3, align 8
  %1 = alloca { ptr, ptr, ptr, ptr, ptr, ptr }, align 8
  %2 = alloca { ptr, ptr, ptr, ptr, ptr, ptr }, align 8
  %slot4 = getelementptr inbounds nuw { ptr, ptr, ptr, ptr, ptr, ptr }, ptr %2, i32 0, i32 1
  store ptr %1, ptr %slot4, align 8
  %slot5 = getelementptr inbounds nuw { ptr, ptr, ptr, ptr, ptr, ptr }, ptr %2, i32 0, i32 0
  store ptr %raw_box, ptr %slot5, align 8
  %slot6 = getelementptr inbounds nuw { ptr, ptr, ptr, ptr, ptr, ptr }, ptr %2, i32 0, i32 2
  store ptr %1, ptr %slot6, align 8
  %slot7 = getelementptr inbounds nuw { ptr, ptr, ptr, ptr, ptr, ptr }, ptr %2, i32 0, i32 5
  store ptr %raw_box, ptr %slot7, align 8
  %field = getelementptr inbounds nuw %amice.alias.st.29, ptr %raw_box, i32 0, i32 0
  store ptr %_1, ptr %field, align 8
    #dbg_declare(ptr poison, !545, !DIExpression(), !550)
    #dbg_declare(ptr poison, !546, !DIExpression(), !550)
  %3 = load ptr, ptr %_1, align 8, !dbg !550
; call <std::rt::lang_start<()>::{closure#0} as core::ops::function::FnOnce<()>>::call_once
  %_0 = call i32 @_RNvYNCINvNtCskEWJ9B2QHD5_3std2rt10lang_startuE0INtNtNtCsiJgtBcGlDou_4core3ops8function6FnOnceuE9call_onceCs9dAga0YNYgM_17alias_access_test(ptr %3) #14, !dbg !550
  ret i32 %_0, !dbg !550
}

; alias_access_test::test_local_array
; Function Attrs: noinline nonlazybind uwtable
define internal i32 @_RNvCs9dAga0YNYgM_17alias_access_test16test_local_array(i32 %n) unnamed_addr #2 !dbg !551 {
start:
  %raw_box = alloca %amice.alias.st.30, align 8
  %raw_box19 = alloca %amice.alias.st.31, align 8
  %raw_box20 = alloca %amice.alias.st.32, align 8
  %raw_box21 = alloca %amice.alias.st.33, align 8
  %raw_box22 = alloca %amice.alias.st.34, align 8
  %raw_box23 = alloca %amice.alias.st.35, align 8
  %raw_box24 = alloca %amice.alias.st.36, align 8
  %raw_box25 = alloca %amice.alias.st.37, align 8
  %raw_box26 = alloca %amice.alias.st.38, align 8
  %0 = alloca { ptr, ptr, ptr, ptr, ptr, ptr }, align 8
  %1 = alloca { ptr, ptr, ptr, ptr, ptr, ptr }, align 8
  %slot = getelementptr inbounds nuw { ptr, ptr, ptr, ptr, ptr, ptr }, ptr %1, i32 0, i32 4
  store ptr %raw_box25, ptr %slot, align 8
  %2 = alloca { ptr, ptr, ptr, ptr, ptr, ptr }, align 8
  %3 = alloca { ptr, ptr, ptr, ptr, ptr, ptr }, align 8
  %slot27 = getelementptr inbounds nuw { ptr, ptr, ptr, ptr, ptr, ptr }, ptr %3, i32 0, i32 5
  store ptr %1, ptr %slot27, align 8
  %slot28 = getelementptr inbounds nuw { ptr, ptr, ptr, ptr, ptr, ptr }, ptr %3, i32 0, i32 3
  store ptr %raw_box22, ptr %slot28, align 8
  %slot29 = getelementptr inbounds nuw { ptr, ptr, ptr, ptr, ptr, ptr }, ptr %3, i32 0, i32 2
  store ptr %raw_box26, ptr %slot29, align 8
  %slot30 = getelementptr inbounds nuw { ptr, ptr, ptr, ptr, ptr, ptr }, ptr %3, i32 0, i32 4
  store ptr %raw_box22, ptr %slot30, align 8
  %slot31 = getelementptr inbounds nuw { ptr, ptr, ptr, ptr, ptr, ptr }, ptr %3, i32 0, i32 0
  store ptr %raw_box24, ptr %slot31, align 8
  %4 = alloca { ptr, ptr, ptr, ptr, ptr, ptr }, align 8
  %slot32 = getelementptr inbounds nuw { ptr, ptr, ptr, ptr, ptr, ptr }, ptr %4, i32 0, i32 1
  store ptr %3, ptr %slot32, align 8
  %slot33 = getelementptr inbounds nuw { ptr, ptr, ptr, ptr, ptr, ptr }, ptr %4, i32 0, i32 0
  store ptr %0, ptr %slot33, align 8
  %slot34 = getelementptr inbounds nuw { ptr, ptr, ptr, ptr, ptr, ptr }, ptr %4, i32 0, i32 4
  store ptr %1, ptr %slot34, align 8
  %slot35 = getelementptr inbounds nuw { ptr, ptr, ptr, ptr, ptr, ptr }, ptr %4, i32 0, i32 2
  store ptr %raw_box25, ptr %slot35, align 8
  %slot36 = getelementptr inbounds nuw { ptr, ptr, ptr, ptr, ptr, ptr }, ptr %4, i32 0, i32 3
  store ptr %3, ptr %slot36, align 8
  %5 = alloca { ptr, ptr, ptr, ptr, ptr, ptr }, align 8
  %slot37 = getelementptr inbounds nuw { ptr, ptr, ptr, ptr, ptr, ptr }, ptr %5, i32 0, i32 4
  store ptr %raw_box24, ptr %slot37, align 8
  %6 = alloca { ptr, ptr, ptr, ptr, ptr, ptr }, align 8
  %slot38 = getelementptr inbounds nuw { ptr, ptr, ptr, ptr, ptr, ptr }, ptr %6, i32 0, i32 2
  store ptr %1, ptr %slot38, align 8
  %7 = alloca { ptr, ptr, ptr, ptr, ptr, ptr }, align 8
  %slot39 = getelementptr inbounds nuw { ptr, ptr, ptr, ptr, ptr, ptr }, ptr %7, i32 0, i32 5
  store ptr %raw_box20, ptr %slot39, align 8
  %slot40 = getelementptr inbounds nuw { ptr, ptr, ptr, ptr, ptr, ptr }, ptr %7, i32 0, i32 0
  store ptr %raw_box24, ptr %slot40, align 8
  %slot41 = getelementptr inbounds nuw { ptr, ptr, ptr, ptr, ptr, ptr }, ptr %7, i32 0, i32 3
  store ptr %raw_box26, ptr %slot41, align 8
  %slot42 = getelementptr inbounds nuw { ptr, ptr, ptr, ptr, ptr, ptr }, ptr %7, i32 0, i32 1
  store ptr %raw_box25, ptr %slot42, align 8
  %8 = alloca { ptr, ptr, ptr, ptr, ptr, ptr }, align 8
  %slot43 = getelementptr inbounds nuw { ptr, ptr, ptr, ptr, ptr, ptr }, ptr %8, i32 0, i32 4
  store ptr %raw_box20, ptr %slot43, align 8
  %slot44 = getelementptr inbounds nuw { ptr, ptr, ptr, ptr, ptr, ptr }, ptr %8, i32 0, i32 3
  store ptr %2, ptr %slot44, align 8
  %slot45 = getelementptr inbounds nuw { ptr, ptr, ptr, ptr, ptr, ptr }, ptr %8, i32 0, i32 0
  store ptr %3, ptr %slot45, align 8
  %slot46 = getelementptr inbounds nuw { ptr, ptr, ptr, ptr, ptr, ptr }, ptr %8, i32 0, i32 5
  store ptr %raw_box20, ptr %slot46, align 8
  %slot47 = getelementptr inbounds nuw { ptr, ptr, ptr, ptr, ptr, ptr }, ptr %8, i32 0, i32 1
  store ptr %raw_box25, ptr %slot47, align 8
  %9 = alloca { ptr, ptr, ptr, ptr, ptr, ptr }, align 8
  %slot48 = getelementptr inbounds nuw { ptr, ptr, ptr, ptr, ptr, ptr }, ptr %9, i32 0, i32 4
  store ptr %7, ptr %slot48, align 8
  %slot49 = getelementptr inbounds nuw { ptr, ptr, ptr, ptr, ptr, ptr }, ptr %9, i32 0, i32 1
  store ptr %0, ptr %slot49, align 8
  %slot50 = getelementptr inbounds nuw { ptr, ptr, ptr, ptr, ptr, ptr }, ptr %9, i32 0, i32 2
  store ptr %raw_box, ptr %slot50, align 8
  %slot51 = getelementptr inbounds nuw { ptr, ptr, ptr, ptr, ptr, ptr }, ptr %9, i32 0, i32 3
  store ptr %3, ptr %slot51, align 8
  %slot52 = getelementptr inbounds nuw { ptr, ptr, ptr, ptr, ptr, ptr }, ptr %9, i32 0, i32 0
  store ptr %5, ptr %slot52, align 8
  %10 = alloca { ptr, ptr, ptr, ptr, ptr, ptr }, align 8
  %slot53 = getelementptr inbounds nuw { ptr, ptr, ptr, ptr, ptr, ptr }, ptr %10, i32 0, i32 0
  store ptr %0, ptr %slot53, align 8
  %slot54 = getelementptr inbounds nuw { ptr, ptr, ptr, ptr, ptr, ptr }, ptr %10, i32 0, i32 4
  store ptr %3, ptr %slot54, align 8
  %slot55 = getelementptr inbounds nuw { ptr, ptr, ptr, ptr, ptr, ptr }, ptr %10, i32 0, i32 2
  store ptr %5, ptr %slot55, align 8
  %slot56 = getelementptr inbounds nuw { ptr, ptr, ptr, ptr, ptr, ptr }, ptr %10, i32 0, i32 1
  store ptr %3, ptr %slot56, align 8
  %slot57 = getelementptr inbounds nuw { ptr, ptr, ptr, ptr, ptr, ptr }, ptr %10, i32 0, i32 5
  store ptr %raw_box25, ptr %slot57, align 8
  %11 = alloca { ptr, ptr, ptr, ptr, ptr, ptr }, align 8
  %slot58 = getelementptr inbounds nuw { ptr, ptr, ptr, ptr, ptr, ptr }, ptr %11, i32 0, i32 4
  store ptr %9, ptr %slot58, align 8
  %slot59 = getelementptr inbounds nuw { ptr, ptr, ptr, ptr, ptr, ptr }, ptr %11, i32 0, i32 5
  store ptr %2, ptr %slot59, align 8
  %12 = alloca { ptr, ptr, ptr, ptr, ptr, ptr }, align 8
  %slot60 = getelementptr inbounds nuw { ptr, ptr, ptr, ptr, ptr, ptr }, ptr %12, i32 0, i32 0
  store ptr %2, ptr %slot60, align 8
  %slot61 = getelementptr inbounds nuw { ptr, ptr, ptr, ptr, ptr, ptr }, ptr %12, i32 0, i32 4
  store ptr %raw_box19, ptr %slot61, align 8
  %slot62 = getelementptr inbounds nuw { ptr, ptr, ptr, ptr, ptr, ptr }, ptr %12, i32 0, i32 3
  store ptr %raw_box, ptr %slot62, align 8
  %slot63 = getelementptr inbounds nuw { ptr, ptr, ptr, ptr, ptr, ptr }, ptr %12, i32 0, i32 5
  store ptr %5, ptr %slot63, align 8
  %slot64 = getelementptr inbounds nuw { ptr, ptr, ptr, ptr, ptr, ptr }, ptr %12, i32 0, i32 2
  store ptr %raw_box19, ptr %slot64, align 8
  %13 = alloca { ptr, ptr, ptr, ptr, ptr, ptr }, align 8
  %14 = alloca { ptr, ptr, ptr, ptr, ptr, ptr }, align 8
  %slot65 = getelementptr inbounds nuw { ptr, ptr, ptr, ptr, ptr, ptr }, ptr %14, i32 0, i32 3
  store ptr %0, ptr %slot65, align 8
  %slot66 = getelementptr inbounds nuw { ptr, ptr, ptr, ptr, ptr, ptr }, ptr %14, i32 0, i32 5
  store ptr %4, ptr %slot66, align 8
  %slot67 = getelementptr inbounds nuw { ptr, ptr, ptr, ptr, ptr, ptr }, ptr %14, i32 0, i32 2
  store ptr %5, ptr %slot67, align 8
  %slot68 = getelementptr inbounds nuw { ptr, ptr, ptr, ptr, ptr, ptr }, ptr %14, i32 0, i32 1
  store ptr %raw_box, ptr %slot68, align 8
  %15 = alloca { ptr, ptr, ptr, ptr, ptr, ptr }, align 8
  %slot69 = getelementptr inbounds nuw { ptr, ptr, ptr, ptr, ptr, ptr }, ptr %15, i32 0, i32 4
  store ptr %4, ptr %slot69, align 8
  %slot70 = getelementptr inbounds nuw { ptr, ptr, ptr, ptr, ptr, ptr }, ptr %15, i32 0, i32 2
  store ptr %0, ptr %slot70, align 8
  %slot71 = getelementptr inbounds nuw { ptr, ptr, ptr, ptr, ptr, ptr }, ptr %15, i32 0, i32 5
  store ptr %8, ptr %slot71, align 8
  %slot72 = getelementptr inbounds nuw { ptr, ptr, ptr, ptr, ptr, ptr }, ptr %15, i32 0, i32 1
  store ptr %raw_box22, ptr %slot72, align 8
  %16 = alloca { ptr, ptr, ptr, ptr, ptr, ptr }, align 8
  %slot73 = getelementptr inbounds nuw { ptr, ptr, ptr, ptr, ptr, ptr }, ptr %16, i32 0, i32 4
  store ptr %6, ptr %slot73, align 8
  %slot74 = getelementptr inbounds nuw { ptr, ptr, ptr, ptr, ptr, ptr }, ptr %16, i32 0, i32 1
  store ptr %raw_box26, ptr %slot74, align 8
  %17 = alloca { ptr, ptr, ptr, ptr, ptr, ptr }, align 8
  %slot75 = getelementptr inbounds nuw { ptr, ptr, ptr, ptr, ptr, ptr }, ptr %17, i32 0, i32 4
  store ptr %6, ptr %slot75, align 8
  %slot76 = getelementptr inbounds nuw { ptr, ptr, ptr, ptr, ptr, ptr }, ptr %17, i32 0, i32 2
  store ptr %15, ptr %slot76, align 8
  %slot77 = getelementptr inbounds nuw { ptr, ptr, ptr, ptr, ptr, ptr }, ptr %17, i32 0, i32 0
  store ptr %12, ptr %slot77, align 8
  %18 = alloca { ptr, ptr, ptr, ptr, ptr, ptr }, align 8
  %slot78 = getelementptr inbounds nuw { ptr, ptr, ptr, ptr, ptr, ptr }, ptr %18, i32 0, i32 0
  store ptr %16, ptr %slot78, align 8
  %slot79 = getelementptr inbounds nuw { ptr, ptr, ptr, ptr, ptr, ptr }, ptr %18, i32 0, i32 4
  store ptr %9, ptr %slot79, align 8
  %19 = alloca { ptr, ptr, ptr, ptr, ptr, ptr }, align 8
  %slot80 = getelementptr inbounds nuw { ptr, ptr, ptr, ptr, ptr, ptr }, ptr %19, i32 0, i32 3
  store ptr %2, ptr %slot80, align 8
  %slot81 = getelementptr inbounds nuw { ptr, ptr, ptr, ptr, ptr, ptr }, ptr %19, i32 0, i32 2
  store ptr %13, ptr %slot81, align 8
  %20 = alloca { ptr, ptr, ptr, ptr, ptr, ptr }, align 8
  %slot82 = getelementptr inbounds nuw { ptr, ptr, ptr, ptr, ptr, ptr }, ptr %20, i32 0, i32 3
  store ptr %14, ptr %slot82, align 8
  %slot83 = getelementptr inbounds nuw { ptr, ptr, ptr, ptr, ptr, ptr }, ptr %20, i32 0, i32 5
  store ptr %5, ptr %slot83, align 8
  %slot84 = getelementptr inbounds nuw { ptr, ptr, ptr, ptr, ptr, ptr }, ptr %20, i32 0, i32 4
  store ptr %raw_box20, ptr %slot84, align 8
  %slot85 = getelementptr inbounds nuw { ptr, ptr, ptr, ptr, ptr, ptr }, ptr %20, i32 0, i32 1
  store ptr %raw_box24, ptr %slot85, align 8
  %21 = alloca { ptr, ptr, ptr, ptr, ptr, ptr }, align 8
  %slot86 = getelementptr inbounds nuw { ptr, ptr, ptr, ptr, ptr, ptr }, ptr %21, i32 0, i32 1
  store ptr %2, ptr %slot86, align 8
  %slot87 = getelementptr inbounds nuw { ptr, ptr, ptr, ptr, ptr, ptr }, ptr %21, i32 0, i32 3
  store ptr %20, ptr %slot87, align 8
  %22 = alloca { ptr, ptr, ptr, ptr, ptr, ptr }, align 8
  %slot88 = getelementptr inbounds nuw { ptr, ptr, ptr, ptr, ptr, ptr }, ptr %22, i32 0, i32 3
  store ptr %5, ptr %slot88, align 8
  %slot89 = getelementptr inbounds nuw { ptr, ptr, ptr, ptr, ptr, ptr }, ptr %22, i32 0, i32 4
  store ptr %9, ptr %slot89, align 8
  %slot90 = getelementptr inbounds nuw { ptr, ptr, ptr, ptr, ptr, ptr }, ptr %22, i32 0, i32 0
  store ptr %12, ptr %slot90, align 8
  %slot91 = getelementptr inbounds nuw { ptr, ptr, ptr, ptr, ptr, ptr }, ptr %22, i32 0, i32 5
  store ptr %raw_box19, ptr %slot91, align 8
  %23 = alloca { ptr, ptr, ptr, ptr, ptr, ptr }, align 8
  %slot92 = getelementptr inbounds nuw { ptr, ptr, ptr, ptr, ptr, ptr }, ptr %23, i32 0, i32 3
  store ptr %3, ptr %slot92, align 8
  %slot93 = getelementptr inbounds nuw { ptr, ptr, ptr, ptr, ptr, ptr }, ptr %23, i32 0, i32 2
  store ptr %raw_box26, ptr %slot93, align 8
  %24 = alloca { ptr, ptr, ptr, ptr, ptr, ptr }, align 8
  %slot94 = getelementptr inbounds nuw { ptr, ptr, ptr, ptr, ptr, ptr }, ptr %24, i32 0, i32 3
  store ptr %15, ptr %slot94, align 8
  %slot95 = getelementptr inbounds nuw { ptr, ptr, ptr, ptr, ptr, ptr }, ptr %24, i32 0, i32 0
  store ptr %11, ptr %slot95, align 8
  %slot96 = getelementptr inbounds nuw { ptr, ptr, ptr, ptr, ptr, ptr }, ptr %24, i32 0, i32 5
  store ptr %20, ptr %slot96, align 8
  %slot97 = getelementptr inbounds nuw { ptr, ptr, ptr, ptr, ptr, ptr }, ptr %24, i32 0, i32 2
  store ptr %22, ptr %slot97, align 8
  %25 = alloca { ptr, ptr, ptr, ptr, ptr, ptr }, align 8
  %slot98 = getelementptr inbounds nuw { ptr, ptr, ptr, ptr, ptr, ptr }, ptr %25, i32 0, i32 5
  store ptr %15, ptr %slot98, align 8
  %slot99 = getelementptr inbounds nuw { ptr, ptr, ptr, ptr, ptr, ptr }, ptr %25, i32 0, i32 4
  store ptr %20, ptr %slot99, align 8
  %slot100 = getelementptr inbounds nuw { ptr, ptr, ptr, ptr, ptr, ptr }, ptr %25, i32 0, i32 2
  store ptr %raw_box20, ptr %slot100, align 8
  %slot101 = getelementptr inbounds nuw { ptr, ptr, ptr, ptr, ptr, ptr }, ptr %25, i32 0, i32 3
  store ptr %2, ptr %slot101, align 8
  %slot102 = getelementptr inbounds nuw { ptr, ptr, ptr, ptr, ptr, ptr }, ptr %25, i32 0, i32 1
  store ptr %11, ptr %slot102, align 8
  %26 = alloca { ptr, ptr, ptr, ptr, ptr, ptr }, align 8
  %slot103 = getelementptr inbounds nuw { ptr, ptr, ptr, ptr, ptr, ptr }, ptr %26, i32 0, i32 0
  store ptr %10, ptr %slot103, align 8
  %slot104 = getelementptr inbounds nuw { ptr, ptr, ptr, ptr, ptr, ptr }, ptr %26, i32 0, i32 5
  store ptr %24, ptr %slot104, align 8
  %slot105 = getelementptr inbounds nuw { ptr, ptr, ptr, ptr, ptr, ptr }, ptr %26, i32 0, i32 4
  store ptr %24, ptr %slot105, align 8
  %slot106 = getelementptr inbounds nuw { ptr, ptr, ptr, ptr, ptr, ptr }, ptr %26, i32 0, i32 1
  store ptr %18, ptr %slot106, align 8
  %callg = call ptr @anon.2cf0c1d40cc4e776c7c5e8652d40a35e.40(ptr %12)
  %ld_next = load ptr, ptr %callg, align 8
  %field = getelementptr inbounds nuw %amice.alias.st.31, ptr %ld_next, i32 0, i32 0
  %callg107 = call ptr @anon.2cf0c1d40cc4e776c7c5e8652d40a35e.41(ptr %24)
  %ld_next108 = load ptr, ptr %callg107, align 8
  %callg109 = call ptr @anon.2cf0c1d40cc4e776c7c5e8652d40a35e.42(ptr %ld_next108)
  %ld_next110 = load ptr, ptr %callg109, align 8
  %callg111 = call ptr @anon.2cf0c1d40cc4e776c7c5e8652d40a35e.43(ptr %ld_next110)
  %ld_next112 = load ptr, ptr %callg111, align 8
  %field113 = getelementptr inbounds nuw %amice.alias.st.30, ptr %ld_next112, i32 0, i32 0
  %callg114 = call ptr @anon.2cf0c1d40cc4e776c7c5e8652d40a35e.43(ptr %23)
  %ld_next115 = load ptr, ptr %callg114, align 8
  %callg116 = call ptr @anon.2cf0c1d40cc4e776c7c5e8652d40a35e.44(ptr %ld_next115)
  %ld_next117 = load ptr, ptr %callg116, align 8
  %callg118 = call ptr @anon.2cf0c1d40cc4e776c7c5e8652d40a35e.40(ptr %ld_next117)
  %ld_next119 = load ptr, ptr %callg118, align 8
  %field120 = getelementptr inbounds nuw %amice.alias.st.37, ptr %ld_next119, i32 0, i32 3
  %callg121 = call ptr @anon.2cf0c1d40cc4e776c7c5e8652d40a35e.40(ptr %9)
  %ld_next122 = load ptr, ptr %callg121, align 8
  %callg123 = call ptr @anon.2cf0c1d40cc4e776c7c5e8652d40a35e.45(ptr %ld_next122)
  %ld_next124 = load ptr, ptr %callg123, align 8
  %field125 = getelementptr inbounds nuw %amice.alias.st.37, ptr %ld_next124, i32 0, i32 3
  %callg126 = call ptr @anon.2cf0c1d40cc4e776c7c5e8652d40a35e.40(ptr %1)
  %ld_next127 = load ptr, ptr %callg126, align 8
  %field128 = getelementptr inbounds nuw %amice.alias.st.37, ptr %ld_next127, i32 0, i32 3
  %field129 = getelementptr inbounds nuw %amice.alias.st.35, ptr %raw_box23, i32 0, i32 2
  %field130 = getelementptr inbounds nuw %amice.alias.st.35, ptr %raw_box23, i32 0, i32 2
  %field131 = getelementptr inbounds nuw %amice.alias.st.35, ptr %raw_box23, i32 0, i32 2
  %field132 = getelementptr inbounds nuw %amice.alias.st.35, ptr %raw_box23, i32 0, i32 2
  %field133 = getelementptr inbounds nuw %amice.alias.st.35, ptr %raw_box23, i32 0, i32 2
  %callg134 = call ptr @anon.2cf0c1d40cc4e776c7c5e8652d40a35e.43(ptr %21)
  %ld_next135 = load ptr, ptr %callg134, align 8
  %callg136 = call ptr @anon.2cf0c1d40cc4e776c7c5e8652d40a35e.43(ptr %ld_next135)
  %ld_next137 = load ptr, ptr %callg136, align 8
  %callg138 = call ptr @anon.2cf0c1d40cc4e776c7c5e8652d40a35e.44(ptr %ld_next137)
  %ld_next139 = load ptr, ptr %callg138, align 8
  %callg140 = call ptr @anon.2cf0c1d40cc4e776c7c5e8652d40a35e.40(ptr %ld_next139)
  %ld_next141 = load ptr, ptr %callg140, align 8
  %callg142 = call ptr @anon.2cf0c1d40cc4e776c7c5e8652d40a35e.40(ptr %ld_next141)
  %ld_next143 = load ptr, ptr %callg142, align 8
  %field144 = getelementptr inbounds nuw %amice.alias.st.37, ptr %ld_next143, i32 0, i32 0
  %field145 = getelementptr inbounds nuw %amice.alias.st.33, ptr %raw_box21, i32 0, i32 0
  %callg146 = call ptr @anon.2cf0c1d40cc4e776c7c5e8652d40a35e.41(ptr %17)
  %ld_next147 = load ptr, ptr %callg146, align 8
  %callg148 = call ptr @anon.2cf0c1d40cc4e776c7c5e8652d40a35e.44(ptr %ld_next147)
  %ld_next149 = load ptr, ptr %callg148, align 8
  %callg150 = call ptr @anon.2cf0c1d40cc4e776c7c5e8652d40a35e.42(ptr %ld_next149)
  %ld_next151 = load ptr, ptr %callg150, align 8
  %callg152 = call ptr @anon.2cf0c1d40cc4e776c7c5e8652d40a35e.43(ptr %ld_next151)
  %ld_next153 = load ptr, ptr %callg152, align 8
  %field154 = getelementptr inbounds nuw %amice.alias.st.34, ptr %ld_next153, i32 0, i32 2
  %callg155 = call ptr @anon.2cf0c1d40cc4e776c7c5e8652d40a35e.43(ptr %20)
  %ld_next156 = load ptr, ptr %callg155, align 8
  %callg157 = call ptr @anon.2cf0c1d40cc4e776c7c5e8652d40a35e.44(ptr %ld_next156)
  %ld_next158 = load ptr, ptr %callg157, align 8
  %callg159 = call ptr @anon.2cf0c1d40cc4e776c7c5e8652d40a35e.43(ptr %ld_next158)
  %ld_next160 = load ptr, ptr %callg159, align 8
  %callg161 = call ptr @anon.2cf0c1d40cc4e776c7c5e8652d40a35e.40(ptr %ld_next160)
  %ld_next162 = load ptr, ptr %callg161, align 8
  %field163 = getelementptr inbounds nuw %amice.alias.st.34, ptr %ld_next162, i32 0, i32 2
  %callg164 = call ptr @anon.2cf0c1d40cc4e776c7c5e8652d40a35e.44(ptr %15)
  %ld_next165 = load ptr, ptr %callg164, align 8
  %callg166 = call ptr @anon.2cf0c1d40cc4e776c7c5e8652d40a35e.42(ptr %ld_next165)
  %ld_next167 = load ptr, ptr %callg166, align 8
  %callg168 = call ptr @anon.2cf0c1d40cc4e776c7c5e8652d40a35e.43(ptr %ld_next167)
  %ld_next169 = load ptr, ptr %callg168, align 8
  %field170 = getelementptr inbounds nuw %amice.alias.st.34, ptr %ld_next169, i32 0, i32 2
  %field171 = getelementptr inbounds nuw %amice.alias.st.35, ptr %raw_box23, i32 0, i32 1
  %field172 = getelementptr inbounds nuw %amice.alias.st.35, ptr %raw_box23, i32 0, i32 1
  %field173 = getelementptr inbounds nuw %amice.alias.st.35, ptr %raw_box23, i32 0, i32 1
  %field174 = getelementptr inbounds nuw %amice.alias.st.35, ptr %raw_box23, i32 0, i32 1
  %field175 = getelementptr inbounds nuw %amice.alias.st.35, ptr %raw_box23, i32 0, i32 1
  %callg176 = call ptr @anon.2cf0c1d40cc4e776c7c5e8652d40a35e.44(ptr %14)
  %ld_next177 = load ptr, ptr %callg176, align 8
  %callg178 = call ptr @anon.2cf0c1d40cc4e776c7c5e8652d40a35e.43(ptr %ld_next177)
  %ld_next179 = load ptr, ptr %callg178, align 8
  %callg180 = call ptr @anon.2cf0c1d40cc4e776c7c5e8652d40a35e.41(ptr %ld_next179)
  %ld_next181 = load ptr, ptr %callg180, align 8
  %field182 = getelementptr inbounds nuw %amice.alias.st.38, ptr %ld_next181, i32 0, i32 0
  %callg183 = call ptr @anon.2cf0c1d40cc4e776c7c5e8652d40a35e.41(ptr %14)
  %ld_next184 = load ptr, ptr %callg183, align 8
  %callg185 = call ptr @anon.2cf0c1d40cc4e776c7c5e8652d40a35e.40(ptr %ld_next184)
  %ld_next186 = load ptr, ptr %callg185, align 8
  %field187 = getelementptr inbounds nuw %amice.alias.st.36, ptr %ld_next186, i32 0, i32 1
  %field188 = getelementptr inbounds nuw %amice.alias.st.36, ptr %raw_box24, i32 0, i32 1
  %callg189 = call ptr @anon.2cf0c1d40cc4e776c7c5e8652d40a35e.40(ptr %25)
  %ld_next190 = load ptr, ptr %callg189, align 8
  %callg191 = call ptr @anon.2cf0c1d40cc4e776c7c5e8652d40a35e.45(ptr %ld_next190)
  %ld_next192 = load ptr, ptr %callg191, align 8
  %field193 = getelementptr inbounds nuw %amice.alias.st.36, ptr %ld_next192, i32 0, i32 1
  %field194 = getelementptr inbounds nuw %amice.alias.st.35, ptr %raw_box23, i32 0, i32 0
  %field195 = getelementptr inbounds nuw %amice.alias.st.35, ptr %raw_box23, i32 0, i32 0
  %field196 = getelementptr inbounds nuw %amice.alias.st.35, ptr %raw_box23, i32 0, i32 0
  %field197 = getelementptr inbounds nuw %amice.alias.st.35, ptr %raw_box23, i32 0, i32 0
  %field198 = getelementptr inbounds nuw %amice.alias.st.35, ptr %raw_box23, i32 0, i32 0
  %callg199 = call ptr @anon.2cf0c1d40cc4e776c7c5e8652d40a35e.44(ptr %12)
  %ld_next200 = load ptr, ptr %callg199, align 8
  %callg201 = call ptr @anon.2cf0c1d40cc4e776c7c5e8652d40a35e.40(ptr %ld_next200)
  %ld_next202 = load ptr, ptr %callg201, align 8
  %field203 = getelementptr inbounds nuw %amice.alias.st.36, ptr %ld_next202, i32 0, i32 0
  %callg204 = call ptr @anon.2cf0c1d40cc4e776c7c5e8652d40a35e.40(ptr %11)
  %ld_next205 = load ptr, ptr %callg204, align 8
  %callg206 = call ptr @anon.2cf0c1d40cc4e776c7c5e8652d40a35e.40(ptr %ld_next205)
  %ld_next207 = load ptr, ptr %callg206, align 8
  %callg208 = call ptr @anon.2cf0c1d40cc4e776c7c5e8652d40a35e.44(ptr %ld_next207)
  %ld_next209 = load ptr, ptr %callg208, align 8
  %field210 = getelementptr inbounds nuw %amice.alias.st.32, ptr %ld_next209, i32 0, i32 0
  %callg211 = call ptr @anon.2cf0c1d40cc4e776c7c5e8652d40a35e.40(ptr %10)
  %ld_next212 = load ptr, ptr %callg211, align 8
  %callg213 = call ptr @anon.2cf0c1d40cc4e776c7c5e8652d40a35e.44(ptr %ld_next212)
  %ld_next214 = load ptr, ptr %callg213, align 8
  %callg215 = call ptr @anon.2cf0c1d40cc4e776c7c5e8652d40a35e.40(ptr %ld_next214)
  %ld_next216 = load ptr, ptr %callg215, align 8
  %field217 = getelementptr inbounds nuw %amice.alias.st.37, ptr %ld_next216, i32 0, i32 2
  %callg218 = call ptr @anon.2cf0c1d40cc4e776c7c5e8652d40a35e.42(ptr %8)
  %ld_next219 = load ptr, ptr %callg218, align 8
  %callg220 = call ptr @anon.2cf0c1d40cc4e776c7c5e8652d40a35e.44(ptr %ld_next219)
  %ld_next221 = load ptr, ptr %callg220, align 8
  %callg222 = call ptr @anon.2cf0c1d40cc4e776c7c5e8652d40a35e.40(ptr %ld_next221)
  %ld_next223 = load ptr, ptr %callg222, align 8
  %field224 = getelementptr inbounds nuw %amice.alias.st.37, ptr %ld_next223, i32 0, i32 2
  %callg225 = call ptr @anon.2cf0c1d40cc4e776c7c5e8652d40a35e.42(ptr %26)
  %ld_next226 = load ptr, ptr %callg225, align 8
  %callg227 = call ptr @anon.2cf0c1d40cc4e776c7c5e8652d40a35e.40(ptr %ld_next226)
  %ld_next228 = load ptr, ptr %callg227, align 8
  %callg229 = call ptr @anon.2cf0c1d40cc4e776c7c5e8652d40a35e.44(ptr %ld_next228)
  %ld_next230 = load ptr, ptr %callg229, align 8
  %callg231 = call ptr @anon.2cf0c1d40cc4e776c7c5e8652d40a35e.40(ptr %ld_next230)
  %ld_next232 = load ptr, ptr %callg231, align 8
  %field233 = getelementptr inbounds nuw %amice.alias.st.37, ptr %ld_next232, i32 0, i32 2
  %callg234 = call ptr @anon.2cf0c1d40cc4e776c7c5e8652d40a35e.44(ptr %15)
  %ld_next235 = load ptr, ptr %callg234, align 8
  %callg236 = call ptr @anon.2cf0c1d40cc4e776c7c5e8652d40a35e.42(ptr %ld_next235)
  %ld_next237 = load ptr, ptr %callg236, align 8
  %callg238 = call ptr @anon.2cf0c1d40cc4e776c7c5e8652d40a35e.43(ptr %ld_next237)
  %ld_next239 = load ptr, ptr %callg238, align 8
  %field240 = getelementptr inbounds nuw %amice.alias.st.34, ptr %ld_next239, i32 0, i32 1
  %callg241 = call ptr @anon.2cf0c1d40cc4e776c7c5e8652d40a35e.42(ptr %8)
  %ld_next242 = load ptr, ptr %callg241, align 8
  %callg243 = call ptr @anon.2cf0c1d40cc4e776c7c5e8652d40a35e.43(ptr %ld_next242)
  %ld_next244 = load ptr, ptr %callg243, align 8
  %field245 = getelementptr inbounds nuw %amice.alias.st.34, ptr %ld_next244, i32 0, i32 1
  %callg246 = call ptr @anon.2cf0c1d40cc4e776c7c5e8652d40a35e.45(ptr %10)
  %ld_next247 = load ptr, ptr %callg246, align 8
  %callg248 = call ptr @anon.2cf0c1d40cc4e776c7c5e8652d40a35e.43(ptr %ld_next247)
  %ld_next249 = load ptr, ptr %callg248, align 8
  %field250 = getelementptr inbounds nuw %amice.alias.st.34, ptr %ld_next249, i32 0, i32 1
  %callg251 = call ptr @anon.2cf0c1d40cc4e776c7c5e8652d40a35e.40(ptr %18)
  %ld_next252 = load ptr, ptr %callg251, align 8
  %callg253 = call ptr @anon.2cf0c1d40cc4e776c7c5e8652d40a35e.43(ptr %ld_next252)
  %ld_next254 = load ptr, ptr %callg253, align 8
  %callg255 = call ptr @anon.2cf0c1d40cc4e776c7c5e8652d40a35e.43(ptr %ld_next254)
  %ld_next256 = load ptr, ptr %callg255, align 8
  %field257 = getelementptr inbounds nuw %amice.alias.st.34, ptr %ld_next256, i32 0, i32 1
  %callg258 = call ptr @anon.2cf0c1d40cc4e776c7c5e8652d40a35e.43(ptr %20)
  %ld_next259 = load ptr, ptr %callg258, align 8
  %callg260 = call ptr @anon.2cf0c1d40cc4e776c7c5e8652d40a35e.44(ptr %ld_next259)
  %ld_next261 = load ptr, ptr %callg260, align 8
  %callg262 = call ptr @anon.2cf0c1d40cc4e776c7c5e8652d40a35e.45(ptr %ld_next261)
  %ld_next263 = load ptr, ptr %callg262, align 8
  %callg264 = call ptr @anon.2cf0c1d40cc4e776c7c5e8652d40a35e.40(ptr %ld_next263)
  %ld_next265 = load ptr, ptr %callg264, align 8
  %field266 = getelementptr inbounds nuw %amice.alias.st.34, ptr %ld_next265, i32 0, i32 1
  %callg267 = call ptr @anon.2cf0c1d40cc4e776c7c5e8652d40a35e.43(ptr %3)
  %ld_next268 = load ptr, ptr %callg267, align 8
  %field269 = getelementptr inbounds nuw %amice.alias.st.34, ptr %ld_next268, i32 0, i32 0
  %field270 = getelementptr inbounds nuw %amice.alias.st.33, ptr %raw_box21, i32 0, i32 0
  %callg271 = call ptr @anon.2cf0c1d40cc4e776c7c5e8652d40a35e.40(ptr %20)
  %ld_next272 = load ptr, ptr %callg271, align 8
  %field273 = getelementptr inbounds nuw %amice.alias.st.32, ptr %ld_next272, i32 0, i32 0
  %callg274 = call ptr @anon.2cf0c1d40cc4e776c7c5e8652d40a35e.43(ptr %23)
  %ld_next275 = load ptr, ptr %callg274, align 8
  %callg276 = call ptr @anon.2cf0c1d40cc4e776c7c5e8652d40a35e.44(ptr %ld_next275)
  %ld_next277 = load ptr, ptr %callg276, align 8
  %callg278 = call ptr @anon.2cf0c1d40cc4e776c7c5e8652d40a35e.40(ptr %ld_next277)
  %ld_next279 = load ptr, ptr %callg278, align 8
  %field280 = getelementptr inbounds nuw %amice.alias.st.37, ptr %ld_next279, i32 0, i32 1
  %callg281 = call ptr @anon.2cf0c1d40cc4e776c7c5e8652d40a35e.43(ptr %21)
  %ld_next282 = load ptr, ptr %callg281, align 8
  %callg283 = call ptr @anon.2cf0c1d40cc4e776c7c5e8652d40a35e.43(ptr %ld_next282)
  %ld_next284 = load ptr, ptr %callg283, align 8
  %callg285 = call ptr @anon.2cf0c1d40cc4e776c7c5e8652d40a35e.45(ptr %ld_next284)
  %ld_next286 = load ptr, ptr %callg285, align 8
  %field287 = getelementptr inbounds nuw %amice.alias.st.30, ptr %ld_next286, i32 0, i32 0
  %callg288 = call ptr @anon.2cf0c1d40cc4e776c7c5e8652d40a35e.44(ptr %24)
  %ld_next289 = load ptr, ptr %callg288, align 8
  %callg290 = call ptr @anon.2cf0c1d40cc4e776c7c5e8652d40a35e.40(ptr %ld_next289)
  %ld_next291 = load ptr, ptr %callg290, align 8
  %field292 = getelementptr inbounds nuw %amice.alias.st.32, ptr %ld_next291, i32 0, i32 0
  %callg293 = call ptr @anon.2cf0c1d40cc4e776c7c5e8652d40a35e.45(ptr %26)
  %ld_next294 = load ptr, ptr %callg293, align 8
  %callg295 = call ptr @anon.2cf0c1d40cc4e776c7c5e8652d40a35e.40(ptr %ld_next294)
  %ld_next296 = load ptr, ptr %callg295, align 8
  %callg297 = call ptr @anon.2cf0c1d40cc4e776c7c5e8652d40a35e.40(ptr %ld_next296)
  %ld_next298 = load ptr, ptr %callg297, align 8
  %callg299 = call ptr @anon.2cf0c1d40cc4e776c7c5e8652d40a35e.44(ptr %ld_next298)
  %ld_next300 = load ptr, ptr %callg299, align 8
  %field301 = getelementptr inbounds nuw %amice.alias.st.32, ptr %ld_next300, i32 0, i32 0
  %callg302 = call ptr @anon.2cf0c1d40cc4e776c7c5e8652d40a35e.40(ptr %18)
  %ld_next303 = load ptr, ptr %callg302, align 8
  %callg304 = call ptr @anon.2cf0c1d40cc4e776c7c5e8652d40a35e.41(ptr %ld_next303)
  %ld_next305 = load ptr, ptr %callg304, align 8
  %field306 = getelementptr inbounds nuw %amice.alias.st.30, ptr %ld_next305, i32 0, i32 0
  %callg307 = call ptr @anon.2cf0c1d40cc4e776c7c5e8652d40a35e.42(ptr %17)
  %ld_next308 = load ptr, ptr %callg307, align 8
  %callg309 = call ptr @anon.2cf0c1d40cc4e776c7c5e8652d40a35e.43(ptr %ld_next308)
  %ld_next310 = load ptr, ptr %callg309, align 8
  %field311 = getelementptr inbounds nuw %amice.alias.st.30, ptr %ld_next310, i32 0, i32 0
  %callg312 = call ptr @anon.2cf0c1d40cc4e776c7c5e8652d40a35e.40(ptr %11)
  %ld_next313 = load ptr, ptr %callg312, align 8
  %callg314 = call ptr @anon.2cf0c1d40cc4e776c7c5e8652d40a35e.41(ptr %ld_next313)
  %ld_next315 = load ptr, ptr %callg314, align 8
  %field316 = getelementptr inbounds nuw %amice.alias.st.30, ptr %ld_next315, i32 0, i32 0
  %field317 = getelementptr inbounds nuw %amice.alias.st.33, ptr %raw_box21, i32 0, i32 0
  %field318 = getelementptr inbounds nuw %amice.alias.st.33, ptr %raw_box21, i32 0, i32 0
  %callg319 = call ptr @anon.2cf0c1d40cc4e776c7c5e8652d40a35e.43(ptr %20)
  %ld_next320 = load ptr, ptr %callg319, align 8
  %callg321 = call ptr @anon.2cf0c1d40cc4e776c7c5e8652d40a35e.45(ptr %ld_next320)
  %ld_next322 = load ptr, ptr %callg321, align 8
  %field323 = getelementptr inbounds nuw %amice.alias.st.30, ptr %ld_next322, i32 0, i32 0
  store i32 %n, ptr %field, align 4
    #dbg_declare(ptr poison, !555, !DIExpression(), !590)
    #dbg_declare(ptr poison, !556, !DIExpression(), !591)
    #dbg_declare(ptr poison, !561, !DIExpression(), !592)
    #dbg_declare(ptr poison, !572, !DIExpression(), !593)
    #dbg_declare(ptr poison, !574, !DIExpression(), !594)
    #dbg_declare(ptr poison, !578, !DIExpression(), !595)
    #dbg_declare(ptr poison, !582, !DIExpression(), !596)
    #dbg_declare(ptr poison, !584, !DIExpression(), !597)
  call void @llvm.memset.p0.i64(ptr align 4 %field113, i8 0, i64 32, i1 false), !dbg !598
; call <core::ops::range::Range<usize> as core::iter::traits::collect::IntoIterator>::into_iter
  %27 = call { i64, i64 } @_RNvXNtNtNtCsiJgtBcGlDou_4core4iter6traits7collectINtNtNtB8_3ops5range5RangejENtB2_12IntoIterator9into_iterCs9dAga0YNYgM_17alias_access_test(i64 0, i64 8) #14, !dbg !599
  %_3.0 = extractvalue { i64, i64 } %27, 0, !dbg !599
  %_3.1 = extractvalue { i64, i64 } %27, 1, !dbg !599
  store i64 %_3.0, ptr %field120, align 8, !dbg !599
  %28 = getelementptr inbounds i8, ptr %field125, i64 8, !dbg !599
  store i64 %_3.1, ptr %28, align 8, !dbg !599
  br label %bb2, !dbg !600

bb2:                                              ; preds = %bb8, %start
; call <core::ops::range::Range<usize> as core::iter::traits::iterator::Iterator>::next
  %29 = call { i64, i64 } @_RNvXs4_NtNtCsiJgtBcGlDou_4core4iter5rangeINtNtNtB9_3ops5range5RangejENtNtNtB7_6traits8iterator8Iterator4nextCs9dAga0YNYgM_17alias_access_test(ptr align 8 %field128) #14, !dbg !592
  %30 = extractvalue { i64, i64 } %29, 0, !dbg !592
  %31 = extractvalue { i64, i64 } %29, 1, !dbg !592
  store i64 %30, ptr %field129, align 8, !dbg !592
  %32 = getelementptr inbounds i8, ptr %field130, i64 8, !dbg !592
  store i64 %31, ptr %32, align 8, !dbg !592
  %_8 = load i64, ptr %field131, align 8, !dbg !592
  %33 = getelementptr inbounds i8, ptr %field132, i64 8, !dbg !592
  %34 = load i64, ptr %33, align 8, !dbg !592
  %35 = trunc nuw i64 %_8 to i1, !dbg !592
  br i1 %35, label %bb5, label %bb6, !dbg !592

bb5:                                              ; preds = %bb2
  %36 = getelementptr inbounds i8, ptr %field133, i64 8, !dbg !601
  %i15 = load i64, ptr %36, align 8, !dbg !601
  store i64 %i15, ptr %field144, align 8, !dbg !601
    #dbg_declare(ptr poison, !570, !DIExpression(), !602)
  %_10 = trunc i64 %i15 to i32, !dbg !603
  %37 = call { i32, i1 } @llvm.smul.with.overflow.i32(i32 %_10, i32 %n), !dbg !603
  %_11.0 = extractvalue { i32, i1 } %37, 0, !dbg !603
  %_11.1 = extractvalue { i32, i1 } %37, 1, !dbg !603
  br i1 %_11.1, label %panic17, label %bb7, !dbg !603

bb6:                                              ; preds = %bb2
  store i32 0, ptr %field145, align 4, !dbg !604
; call <core::ops::range::Range<usize> as core::iter::traits::collect::IntoIterator>::into_iter
  %38 = call { i64, i64 } @_RNvXNtNtNtCsiJgtBcGlDou_4core4iter6traits7collectINtNtNtB8_3ops5range5RangejENtB2_12IntoIterator9into_iterCs9dAga0YNYgM_17alias_access_test(i64 0, i64 8) #14, !dbg !605
  %_14.0 = extractvalue { i64, i64 } %38, 0, !dbg !605
  %_14.1 = extractvalue { i64, i64 } %38, 1, !dbg !605
  store i64 %_14.0, ptr %field154, align 8, !dbg !605
  %39 = getelementptr inbounds i8, ptr %field163, i64 8, !dbg !605
  store i64 %_14.1, ptr %39, align 8, !dbg !605
  br label %bb10, !dbg !606

bb10:                                             ; preds = %bb15, %bb6
; call <core::ops::range::Range<usize> as core::iter::traits::iterator::Iterator>::next
  %40 = call { i64, i64 } @_RNvXs4_NtNtCsiJgtBcGlDou_4core4iter5rangeINtNtNtB9_3ops5range5RangejENtNtNtB7_6traits8iterator8Iterator4nextCs9dAga0YNYgM_17alias_access_test(ptr align 8 %field170) #14, !dbg !594
  %41 = extractvalue { i64, i64 } %40, 0, !dbg !594
  %42 = extractvalue { i64, i64 } %40, 1, !dbg !594
  store i64 %41, ptr %field171, align 8, !dbg !594
  %43 = getelementptr inbounds i8, ptr %field172, i64 8, !dbg !594
  store i64 %42, ptr %43, align 8, !dbg !594
  %_19 = load i64, ptr %field173, align 8, !dbg !594
  %44 = getelementptr inbounds i8, ptr %field174, i64 8, !dbg !594
  %45 = load i64, ptr %44, align 8, !dbg !594
  %46 = trunc nuw i64 %_19 to i1, !dbg !594
  br i1 %46, label %bb12, label %bb13, !dbg !594

bb12:                                             ; preds = %bb10
  %47 = getelementptr inbounds i8, ptr %field175, i64 8, !dbg !607
  %i11 = load i64, ptr %47, align 8, !dbg !607
  store i64 %i11, ptr %field182, align 8, !dbg !607
    #dbg_declare(ptr poison, !576, !DIExpression(), !608)
  %_22 = icmp ult i64 %i11, 8, !dbg !609
  br i1 %_22, label %bb14, label %panic13, !dbg !609

bb13:                                             ; preds = %bb10
; call <core::ops::range::Range<usize> as core::iter::traits::collect::IntoIterator>::into_iter
  %48 = call { i64, i64 } @_RNvXNtNtNtCsiJgtBcGlDou_4core4iter6traits7collectINtNtNtB8_3ops5range5RangejENtB2_12IntoIterator9into_iterCs9dAga0YNYgM_17alias_access_test(i64 0, i64 8) #14, !dbg !610
  %_24.0 = extractvalue { i64, i64 } %48, 0, !dbg !610
  %_24.1 = extractvalue { i64, i64 } %48, 1, !dbg !610
  store i64 %_24.0, ptr %field187, align 8, !dbg !610
  %49 = getelementptr inbounds i8, ptr %field188, i64 8, !dbg !610
  store i64 %_24.1, ptr %49, align 8, !dbg !610
  br label %bb17, !dbg !611

bb17:                                             ; preds = %bb23, %bb13
; call <core::ops::range::Range<usize> as core::iter::traits::iterator::Iterator>::next
  %50 = call { i64, i64 } @_RNvXs4_NtNtCsiJgtBcGlDou_4core4iter5rangeINtNtNtB9_3ops5range5RangejENtNtNtB7_6traits8iterator8Iterator4nextCs9dAga0YNYgM_17alias_access_test(ptr align 8 %field193) #14, !dbg !595
  %51 = extractvalue { i64, i64 } %50, 0, !dbg !595
  %52 = extractvalue { i64, i64 } %50, 1, !dbg !595
  store i64 %51, ptr %field194, align 8, !dbg !595
  %53 = getelementptr inbounds i8, ptr %field195, i64 8, !dbg !595
  store i64 %52, ptr %53, align 8, !dbg !595
  %_29 = load i64, ptr %field196, align 8, !dbg !595
  %54 = getelementptr inbounds i8, ptr %field197, i64 8, !dbg !595
  %55 = load i64, ptr %54, align 8, !dbg !595
  %56 = trunc nuw i64 %_29 to i1, !dbg !595
  br i1 %56, label %bb19, label %bb20, !dbg !595

bb19:                                             ; preds = %bb17
  %57 = getelementptr inbounds i8, ptr %field198, i64 8, !dbg !612
  %i6 = load i64, ptr %57, align 8, !dbg !612
  store i64 %i6, ptr %field203, align 8, !dbg !612
    #dbg_declare(ptr poison, !580, !DIExpression(), !613)
  %_32 = icmp ult i64 %i6, 8, !dbg !614
  br i1 %_32, label %bb21, label %panic8, !dbg !614

bb20:                                             ; preds = %bb17
  store i32 0, ptr %field210, align 4, !dbg !615
; call <core::ops::range::Range<usize> as core::iter::traits::collect::IntoIterator>::into_iter
  %58 = call { i64, i64 } @_RNvXNtNtNtCsiJgtBcGlDou_4core4iter6traits7collectINtNtNtB8_3ops5range5RangejENtB2_12IntoIterator9into_iterCs9dAga0YNYgM_17alias_access_test(i64 0, i64 8) #14, !dbg !616
  %_37.0 = extractvalue { i64, i64 } %58, 0, !dbg !616
  %_37.1 = extractvalue { i64, i64 } %58, 1, !dbg !616
  store i64 %_37.0, ptr %field217, align 8, !dbg !616
  %59 = getelementptr inbounds i8, ptr %field224, i64 8, !dbg !616
  store i64 %_37.1, ptr %59, align 8, !dbg !616
  br label %bb25, !dbg !617

bb25:                                             ; preds = %bb30, %bb20
; call <core::ops::range::Range<usize> as core::iter::traits::iterator::Iterator>::next
  %60 = call { i64, i64 } @_RNvXs4_NtNtCsiJgtBcGlDou_4core4iter5rangeINtNtNtB9_3ops5range5RangejENtNtNtB7_6traits8iterator8Iterator4nextCs9dAga0YNYgM_17alias_access_test(ptr align 8 %field233) #14, !dbg !597
  %61 = extractvalue { i64, i64 } %60, 0, !dbg !597
  %62 = extractvalue { i64, i64 } %60, 1, !dbg !597
  store i64 %61, ptr %field240, align 8, !dbg !597
  %63 = getelementptr inbounds i8, ptr %field245, i64 8, !dbg !597
  store i64 %62, ptr %63, align 8, !dbg !597
  %_42 = load i64, ptr %field250, align 8, !dbg !597
  %64 = getelementptr inbounds i8, ptr %field257, i64 8, !dbg !597
  %65 = load i64, ptr %64, align 8, !dbg !597
  %66 = trunc nuw i64 %_42 to i1, !dbg !597
  br i1 %66, label %bb27, label %bb28, !dbg !597

bb27:                                             ; preds = %bb25
  %67 = getelementptr inbounds i8, ptr %field266, i64 8, !dbg !618
  %i = load i64, ptr %67, align 8, !dbg !618
  store i64 %i, ptr %field269, align 8, !dbg !618
    #dbg_declare(ptr poison, !586, !DIExpression(), !619)
  %_45 = icmp ult i64 %i, 8, !dbg !620
  br i1 %_45, label %bb29, label %panic4, !dbg !620

bb28:                                             ; preds = %bb25
  %_47 = load i32, ptr %field270, align 4, !dbg !621
  %_48 = load i32, ptr %field273, align 4, !dbg !622
  %68 = call { i32, i1 } @llvm.sadd.with.overflow.i32(i32 %_47, i32 %_48), !dbg !621
  %_49.0 = extractvalue { i32, i1 } %68, 0, !dbg !621
  %_49.1 = extractvalue { i32, i1 } %68, 1, !dbg !621
  br i1 %_49.1, label %panic, label %bb31, !dbg !621

bb31:                                             ; preds = %bb28
  store i32 %_49.0, ptr %field280, align 4, !dbg !621
    #dbg_declare(ptr poison, !588, !DIExpression(), !623)
; call alias_access_test::set_sink
  call void @_RNvCs9dAga0YNYgM_17alias_access_test8set_sink(i32 %_49.0) #15, !dbg !624
  ret i32 %_49.0, !dbg !625

panic:                                            ; preds = %bb28
; call core::panicking::panic_const::panic_const_add_overflow
  call void @_RNvNtNtCsiJgtBcGlDou_4core9panicking11panic_const24panic_const_add_overflow(ptr align 8 @alloc_c3fae52d53fa9b34ea24b3c50fccd463) #13, !dbg !621
  unreachable, !dbg !621

bb29:                                             ; preds = %bb27
  %69 = getelementptr inbounds nuw i32, ptr %field287, i64 %i, !dbg !620
  %_44 = load i32, ptr %69, align 4, !dbg !620
  %70 = load i32, ptr %field292, align 4, !dbg !626
  %71 = call { i32, i1 } @llvm.sadd.with.overflow.i32(i32 %70, i32 %_44), !dbg !626
  %_46.0 = extractvalue { i32, i1 } %71, 0, !dbg !626
  %_46.1 = extractvalue { i32, i1 } %71, 1, !dbg !626
  br i1 %_46.1, label %panic5, label %bb30, !dbg !626

panic4:                                           ; preds = %bb27
; call core::panicking::panic_bounds_check
  call void @_RNvNtCsiJgtBcGlDou_4core9panicking18panic_bounds_check(i64 %i, i64 8, ptr align 8 @alloc_2a7f6dd0ce6ce0ecb13fe619b6a8780b) #13, !dbg !620
  unreachable, !dbg !620

bb30:                                             ; preds = %bb29
  store i32 %_46.0, ptr %field301, align 4, !dbg !626
  br label %bb25, !dbg !617

panic5:                                           ; preds = %bb29
; call core::panicking::panic_const::panic_const_add_overflow
  call void @_RNvNtNtCsiJgtBcGlDou_4core9panicking11panic_const24panic_const_add_overflow(ptr align 8 @alloc_ca6ebc7cbc4278e5f0eca1f974af9aeb) #13, !dbg !626
  unreachable, !dbg !626

bb21:                                             ; preds = %bb19
  %72 = getelementptr inbounds nuw i32, ptr %field306, i64 %i6, !dbg !614
  %_31 = load i32, ptr %72, align 4, !dbg !614
  %_33 = trunc i64 %i6 to i32, !dbg !627
  %73 = call { i32, i1 } @llvm.sadd.with.overflow.i32(i32 %_31, i32 %_33), !dbg !614
  %_34.0 = extractvalue { i32, i1 } %73, 0, !dbg !614
  %_34.1 = extractvalue { i32, i1 } %73, 1, !dbg !614
  br i1 %_34.1, label %panic9, label %bb22, !dbg !614

panic8:                                           ; preds = %bb19
; call core::panicking::panic_bounds_check
  call void @_RNvNtCsiJgtBcGlDou_4core9panicking18panic_bounds_check(i64 %i6, i64 8, ptr align 8 @alloc_72bab19e04711bd76595a588c90ea5e4) #13, !dbg !614
  unreachable, !dbg !614

bb22:                                             ; preds = %bb21
  %_35 = icmp ult i64 %i6, 8, !dbg !628
  br i1 %_35, label %bb23, label %panic10, !dbg !628

panic9:                                           ; preds = %bb21
; call core::panicking::panic_const::panic_const_add_overflow
  call void @_RNvNtNtCsiJgtBcGlDou_4core9panicking11panic_const24panic_const_add_overflow(ptr align 8 @alloc_72bab19e04711bd76595a588c90ea5e4) #13, !dbg !614
  unreachable, !dbg !614

bb23:                                             ; preds = %bb22
  %74 = getelementptr inbounds nuw i32, ptr %field311, i64 %i6, !dbg !628
  store i32 %_34.0, ptr %74, align 4, !dbg !628
  br label %bb17, !dbg !611

panic10:                                          ; preds = %bb22
; call core::panicking::panic_bounds_check
  call void @_RNvNtCsiJgtBcGlDou_4core9panicking18panic_bounds_check(i64 %i6, i64 8, ptr align 8 @alloc_92631e26319c600f7c23836df59ea56f) #13, !dbg !628
  unreachable, !dbg !628

bb14:                                             ; preds = %bb12
  %75 = getelementptr inbounds nuw i32, ptr %field316, i64 %i11, !dbg !609
  %_21 = load i32, ptr %75, align 4, !dbg !609
  %76 = load i32, ptr %field317, align 4, !dbg !629
  %77 = call { i32, i1 } @llvm.sadd.with.overflow.i32(i32 %76, i32 %_21), !dbg !629
  %_23.0 = extractvalue { i32, i1 } %77, 0, !dbg !629
  %_23.1 = extractvalue { i32, i1 } %77, 1, !dbg !629
  br i1 %_23.1, label %panic14, label %bb15, !dbg !629

panic13:                                          ; preds = %bb12
; call core::panicking::panic_bounds_check
  call void @_RNvNtCsiJgtBcGlDou_4core9panicking18panic_bounds_check(i64 %i11, i64 8, ptr align 8 @alloc_16730cc74b33d279686b65b333893dec) #13, !dbg !609
  unreachable, !dbg !609

bb15:                                             ; preds = %bb14
  store i32 %_23.0, ptr %field318, align 4, !dbg !629
  br label %bb10, !dbg !606

panic14:                                          ; preds = %bb14
; call core::panicking::panic_const::panic_const_add_overflow
  call void @_RNvNtNtCsiJgtBcGlDou_4core9panicking11panic_const24panic_const_add_overflow(ptr align 8 @alloc_51e7df3f3f8694614ddb730774562a68) #13, !dbg !629
  unreachable, !dbg !629

bb7:                                              ; preds = %bb5
  %_12 = icmp ult i64 %i15, 8, !dbg !630
  br i1 %_12, label %bb8, label %panic18, !dbg !630

panic17:                                          ; preds = %bb5
; call core::panicking::panic_const::panic_const_mul_overflow
  call void @_RNvNtNtCsiJgtBcGlDou_4core9panicking11panic_const24panic_const_mul_overflow(ptr align 8 @alloc_0e2c23d624c3e5a5d9859cdbce72e47b) #13, !dbg !603
  unreachable, !dbg !603

bb8:                                              ; preds = %bb7
  %78 = getelementptr inbounds nuw i32, ptr %field323, i64 %i15, !dbg !630
  store i32 %_11.0, ptr %78, align 4, !dbg !630
  br label %bb2, !dbg !600

panic18:                                          ; preds = %bb7
; call core::panicking::panic_bounds_check
  call void @_RNvNtCsiJgtBcGlDou_4core9panicking18panic_bounds_check(i64 %i15, i64 8, ptr align 8 @alloc_3edc06a6919dfed35222ce20aed6be85) #13, !dbg !630
  unreachable, !dbg !630

bb4:                                              ; No predecessors!
  unreachable, !dbg !631
}

; alias_access_test::test_local_tuple
; Function Attrs: noinline nonlazybind uwtable
define internal i32 @_RNvCs9dAga0YNYgM_17alias_access_test16test_local_tuple(i32 %a, i32 %b, i32 %c) unnamed_addr #2 !dbg !632 {
start:
  %raw_box = alloca %amice.alias.st.39, align 8
  %raw_box5 = alloca %amice.alias.st.40, align 8
  %raw_box6 = alloca %amice.alias.st.41, align 8
  %raw_box7 = alloca %amice.alias.st.42, align 8
  %raw_box8 = alloca %amice.alias.st.43, align 8
  %raw_box9 = alloca %amice.alias.st.44, align 8
  %raw_box10 = alloca %amice.alias.st.45, align 8
  %0 = alloca { ptr, ptr, ptr, ptr, ptr, ptr }, align 8
  %slot = getelementptr inbounds nuw { ptr, ptr, ptr, ptr, ptr, ptr }, ptr %0, i32 0, i32 0
  store ptr %raw_box7, ptr %slot, align 8
  %slot11 = getelementptr inbounds nuw { ptr, ptr, ptr, ptr, ptr, ptr }, ptr %0, i32 0, i32 1
  store ptr %raw_box5, ptr %slot11, align 8
  %slot12 = getelementptr inbounds nuw { ptr, ptr, ptr, ptr, ptr, ptr }, ptr %0, i32 0, i32 2
  store ptr %raw_box8, ptr %slot12, align 8
  %slot13 = getelementptr inbounds nuw { ptr, ptr, ptr, ptr, ptr, ptr }, ptr %0, i32 0, i32 4
  store ptr %raw_box8, ptr %slot13, align 8
  %slot14 = getelementptr inbounds nuw { ptr, ptr, ptr, ptr, ptr, ptr }, ptr %0, i32 0, i32 5
  store ptr %raw_box7, ptr %slot14, align 8
  %1 = alloca { ptr, ptr, ptr, ptr, ptr, ptr }, align 8
  %slot15 = getelementptr inbounds nuw { ptr, ptr, ptr, ptr, ptr, ptr }, ptr %1, i32 0, i32 2
  store ptr %raw_box, ptr %slot15, align 8
  %2 = alloca { ptr, ptr, ptr, ptr, ptr, ptr }, align 8
  %3 = alloca { ptr, ptr, ptr, ptr, ptr, ptr }, align 8
  %slot16 = getelementptr inbounds nuw { ptr, ptr, ptr, ptr, ptr, ptr }, ptr %3, i32 0, i32 2
  store ptr %raw_box6, ptr %slot16, align 8
  %slot17 = getelementptr inbounds nuw { ptr, ptr, ptr, ptr, ptr, ptr }, ptr %3, i32 0, i32 0
  store ptr %raw_box7, ptr %slot17, align 8
  %slot18 = getelementptr inbounds nuw { ptr, ptr, ptr, ptr, ptr, ptr }, ptr %3, i32 0, i32 1
  store ptr %raw_box9, ptr %slot18, align 8
  %4 = alloca { ptr, ptr, ptr, ptr, ptr, ptr }, align 8
  %slot19 = getelementptr inbounds nuw { ptr, ptr, ptr, ptr, ptr, ptr }, ptr %4, i32 0, i32 5
  store ptr %raw_box9, ptr %slot19, align 8
  %slot20 = getelementptr inbounds nuw { ptr, ptr, ptr, ptr, ptr, ptr }, ptr %4, i32 0, i32 0
  store ptr %1, ptr %slot20, align 8
  %slot21 = getelementptr inbounds nuw { ptr, ptr, ptr, ptr, ptr, ptr }, ptr %4, i32 0, i32 4
  store ptr %2, ptr %slot21, align 8
  %slot22 = getelementptr inbounds nuw { ptr, ptr, ptr, ptr, ptr, ptr }, ptr %4, i32 0, i32 3
  store ptr %0, ptr %slot22, align 8
  %5 = alloca { ptr, ptr, ptr, ptr, ptr, ptr }, align 8
  %6 = alloca { ptr, ptr, ptr, ptr, ptr, ptr }, align 8
  %slot23 = getelementptr inbounds nuw { ptr, ptr, ptr, ptr, ptr, ptr }, ptr %6, i32 0, i32 0
  store ptr %raw_box, ptr %slot23, align 8
  %slot24 = getelementptr inbounds nuw { ptr, ptr, ptr, ptr, ptr, ptr }, ptr %6, i32 0, i32 3
  store ptr %raw_box7, ptr %slot24, align 8
  %slot25 = getelementptr inbounds nuw { ptr, ptr, ptr, ptr, ptr, ptr }, ptr %6, i32 0, i32 5
  store ptr %raw_box7, ptr %slot25, align 8
  %7 = alloca { ptr, ptr, ptr, ptr, ptr, ptr }, align 8
  %slot26 = getelementptr inbounds nuw { ptr, ptr, ptr, ptr, ptr, ptr }, ptr %7, i32 0, i32 4
  store ptr %raw_box10, ptr %slot26, align 8
  %slot27 = getelementptr inbounds nuw { ptr, ptr, ptr, ptr, ptr, ptr }, ptr %7, i32 0, i32 1
  store ptr %5, ptr %slot27, align 8
  %8 = alloca { ptr, ptr, ptr, ptr, ptr, ptr }, align 8
  %slot28 = getelementptr inbounds nuw { ptr, ptr, ptr, ptr, ptr, ptr }, ptr %8, i32 0, i32 5
  store ptr %0, ptr %slot28, align 8
  %slot29 = getelementptr inbounds nuw { ptr, ptr, ptr, ptr, ptr, ptr }, ptr %8, i32 0, i32 2
  store ptr %2, ptr %slot29, align 8
  %slot30 = getelementptr inbounds nuw { ptr, ptr, ptr, ptr, ptr, ptr }, ptr %8, i32 0, i32 4
  store ptr %raw_box6, ptr %slot30, align 8
  %slot31 = getelementptr inbounds nuw { ptr, ptr, ptr, ptr, ptr, ptr }, ptr %8, i32 0, i32 1
  store ptr %2, ptr %slot31, align 8
  %slot32 = getelementptr inbounds nuw { ptr, ptr, ptr, ptr, ptr, ptr }, ptr %8, i32 0, i32 3
  store ptr %raw_box9, ptr %slot32, align 8
  %9 = alloca { ptr, ptr, ptr, ptr, ptr, ptr }, align 8
  %slot33 = getelementptr inbounds nuw { ptr, ptr, ptr, ptr, ptr, ptr }, ptr %9, i32 0, i32 1
  store ptr %3, ptr %slot33, align 8
  %slot34 = getelementptr inbounds nuw { ptr, ptr, ptr, ptr, ptr, ptr }, ptr %9, i32 0, i32 5
  store ptr %raw_box10, ptr %slot34, align 8
  %slot35 = getelementptr inbounds nuw { ptr, ptr, ptr, ptr, ptr, ptr }, ptr %9, i32 0, i32 0
  store ptr %raw_box10, ptr %slot35, align 8
  %10 = alloca { ptr, ptr, ptr, ptr, ptr, ptr }, align 8
  %11 = alloca { ptr, ptr, ptr, ptr, ptr, ptr }, align 8
  %slot36 = getelementptr inbounds nuw { ptr, ptr, ptr, ptr, ptr, ptr }, ptr %11, i32 0, i32 5
  store ptr %6, ptr %slot36, align 8
  %slot37 = getelementptr inbounds nuw { ptr, ptr, ptr, ptr, ptr, ptr }, ptr %11, i32 0, i32 2
  store ptr %raw_box10, ptr %slot37, align 8
  %slot38 = getelementptr inbounds nuw { ptr, ptr, ptr, ptr, ptr, ptr }, ptr %11, i32 0, i32 4
  store ptr %0, ptr %slot38, align 8
  %12 = alloca { ptr, ptr, ptr, ptr, ptr, ptr }, align 8
  %slot39 = getelementptr inbounds nuw { ptr, ptr, ptr, ptr, ptr, ptr }, ptr %12, i32 0, i32 4
  store ptr %8, ptr %slot39, align 8
  %slot40 = getelementptr inbounds nuw { ptr, ptr, ptr, ptr, ptr, ptr }, ptr %12, i32 0, i32 5
  store ptr %6, ptr %slot40, align 8
  %slot41 = getelementptr inbounds nuw { ptr, ptr, ptr, ptr, ptr, ptr }, ptr %12, i32 0, i32 3
  store ptr %3, ptr %slot41, align 8
  %slot42 = getelementptr inbounds nuw { ptr, ptr, ptr, ptr, ptr, ptr }, ptr %12, i32 0, i32 1
  store ptr %7, ptr %slot42, align 8
  %slot43 = getelementptr inbounds nuw { ptr, ptr, ptr, ptr, ptr, ptr }, ptr %12, i32 0, i32 2
  store ptr %raw_box8, ptr %slot43, align 8
  %13 = alloca { ptr, ptr, ptr, ptr, ptr, ptr }, align 8
  %slot44 = getelementptr inbounds nuw { ptr, ptr, ptr, ptr, ptr, ptr }, ptr %13, i32 0, i32 2
  store ptr %2, ptr %slot44, align 8
  %slot45 = getelementptr inbounds nuw { ptr, ptr, ptr, ptr, ptr, ptr }, ptr %13, i32 0, i32 3
  store ptr %9, ptr %slot45, align 8
  %14 = alloca { ptr, ptr, ptr, ptr, ptr, ptr }, align 8
  %slot46 = getelementptr inbounds nuw { ptr, ptr, ptr, ptr, ptr, ptr }, ptr %14, i32 0, i32 1
  store ptr %6, ptr %slot46, align 8
  %slot47 = getelementptr inbounds nuw { ptr, ptr, ptr, ptr, ptr, ptr }, ptr %14, i32 0, i32 3
  store ptr %raw_box8, ptr %slot47, align 8
  %15 = alloca { ptr, ptr, ptr, ptr, ptr, ptr }, align 8
  %slot48 = getelementptr inbounds nuw { ptr, ptr, ptr, ptr, ptr, ptr }, ptr %15, i32 0, i32 1
  store ptr %raw_box8, ptr %slot48, align 8
  %slot49 = getelementptr inbounds nuw { ptr, ptr, ptr, ptr, ptr, ptr }, ptr %15, i32 0, i32 3
  store ptr %raw_box6, ptr %slot49, align 8
  %slot50 = getelementptr inbounds nuw { ptr, ptr, ptr, ptr, ptr, ptr }, ptr %15, i32 0, i32 5
  store ptr %raw_box6, ptr %slot50, align 8
  %slot51 = getelementptr inbounds nuw { ptr, ptr, ptr, ptr, ptr, ptr }, ptr %15, i32 0, i32 0
  store ptr %raw_box6, ptr %slot51, align 8
  %slot52 = getelementptr inbounds nuw { ptr, ptr, ptr, ptr, ptr, ptr }, ptr %15, i32 0, i32 4
  store ptr %9, ptr %slot52, align 8
  %16 = alloca { ptr, ptr, ptr, ptr, ptr, ptr }, align 8
  %slot53 = getelementptr inbounds nuw { ptr, ptr, ptr, ptr, ptr, ptr }, ptr %16, i32 0, i32 1
  store ptr %raw_box7, ptr %slot53, align 8
  %slot54 = getelementptr inbounds nuw { ptr, ptr, ptr, ptr, ptr, ptr }, ptr %16, i32 0, i32 0
  store ptr %15, ptr %slot54, align 8
  %17 = alloca { ptr, ptr, ptr, ptr, ptr, ptr }, align 8
  %slot55 = getelementptr inbounds nuw { ptr, ptr, ptr, ptr, ptr, ptr }, ptr %17, i32 0, i32 5
  store ptr %raw_box9, ptr %slot55, align 8
  %18 = alloca { ptr, ptr, ptr, ptr, ptr, ptr }, align 8
  %slot56 = getelementptr inbounds nuw { ptr, ptr, ptr, ptr, ptr, ptr }, ptr %18, i32 0, i32 3
  store ptr %12, ptr %slot56, align 8
  %19 = alloca { ptr, ptr, ptr, ptr, ptr, ptr }, align 8
  %slot57 = getelementptr inbounds nuw { ptr, ptr, ptr, ptr, ptr, ptr }, ptr %19, i32 0, i32 1
  store ptr %9, ptr %slot57, align 8
  %slot58 = getelementptr inbounds nuw { ptr, ptr, ptr, ptr, ptr, ptr }, ptr %19, i32 0, i32 5
  store ptr %4, ptr %slot58, align 8
  %slot59 = getelementptr inbounds nuw { ptr, ptr, ptr, ptr, ptr, ptr }, ptr %19, i32 0, i32 3
  store ptr %1, ptr %slot59, align 8
  %slot60 = getelementptr inbounds nuw { ptr, ptr, ptr, ptr, ptr, ptr }, ptr %19, i32 0, i32 0
  store ptr %10, ptr %slot60, align 8
  %20 = alloca { ptr, ptr, ptr, ptr, ptr, ptr }, align 8
  %slot61 = getelementptr inbounds nuw { ptr, ptr, ptr, ptr, ptr, ptr }, ptr %20, i32 0, i32 0
  store ptr %raw_box9, ptr %slot61, align 8
  %slot62 = getelementptr inbounds nuw { ptr, ptr, ptr, ptr, ptr, ptr }, ptr %20, i32 0, i32 2
  store ptr %raw_box, ptr %slot62, align 8
  %slot63 = getelementptr inbounds nuw { ptr, ptr, ptr, ptr, ptr, ptr }, ptr %20, i32 0, i32 3
  store ptr %10, ptr %slot63, align 8
  %slot64 = getelementptr inbounds nuw { ptr, ptr, ptr, ptr, ptr, ptr }, ptr %20, i32 0, i32 1
  store ptr %1, ptr %slot64, align 8
  %callg = call ptr @anon.2cf0c1d40cc4e776c7c5e8652d40a35e.46(ptr %15)
  %ld_next = load ptr, ptr %callg, align 8
  %field = getelementptr inbounds nuw %amice.alias.st.43, ptr %ld_next, i32 0, i32 0
  %callg65 = call ptr @anon.2cf0c1d40cc4e776c7c5e8652d40a35e.46(ptr %19)
  %ld_next66 = load ptr, ptr %callg65, align 8
  %callg67 = call ptr @anon.2cf0c1d40cc4e776c7c5e8652d40a35e.47(ptr %ld_next66)
  %ld_next68 = load ptr, ptr %callg67, align 8
  %field69 = getelementptr inbounds nuw %amice.alias.st.45, ptr %ld_next68, i32 0, i32 0
  %callg70 = call ptr @anon.2cf0c1d40cc4e776c7c5e8652d40a35e.48(ptr %4)
  %ld_next71 = load ptr, ptr %callg70, align 8
  %callg72 = call ptr @anon.2cf0c1d40cc4e776c7c5e8652d40a35e.46(ptr %ld_next71)
  %ld_next73 = load ptr, ptr %callg72, align 8
  %field74 = getelementptr inbounds nuw %amice.alias.st.40, ptr %ld_next73, i32 0, i32 2
  %callg75 = call ptr @anon.2cf0c1d40cc4e776c7c5e8652d40a35e.46(ptr %14)
  %ld_next76 = load ptr, ptr %callg75, align 8
  %callg77 = call ptr @anon.2cf0c1d40cc4e776c7c5e8652d40a35e.47(ptr %ld_next76)
  %ld_next78 = load ptr, ptr %callg77, align 8
  %field79 = getelementptr inbounds nuw %amice.alias.st.39, ptr %ld_next78, i32 0, i32 0
  %callg80 = call ptr @anon.2cf0c1d40cc4e776c7c5e8652d40a35e.49(ptr %11)
  %ld_next81 = load ptr, ptr %callg80, align 8
  %callg82 = call ptr @anon.2cf0c1d40cc4e776c7c5e8652d40a35e.47(ptr %ld_next81)
  %ld_next83 = load ptr, ptr %callg82, align 8
  %field84 = getelementptr inbounds nuw %amice.alias.st.39, ptr %ld_next83, i32 0, i32 0
  %callg85 = call ptr @anon.2cf0c1d40cc4e776c7c5e8652d40a35e.50(ptr %1)
  %ld_next86 = load ptr, ptr %callg85, align 8
  %field87 = getelementptr inbounds nuw %amice.alias.st.39, ptr %ld_next86, i32 0, i32 0
  %callg88 = call ptr @anon.2cf0c1d40cc4e776c7c5e8652d40a35e.49(ptr %11)
  %ld_next89 = load ptr, ptr %callg88, align 8
  %callg90 = call ptr @anon.2cf0c1d40cc4e776c7c5e8652d40a35e.47(ptr %ld_next89)
  %ld_next91 = load ptr, ptr %callg90, align 8
  %field92 = getelementptr inbounds nuw %amice.alias.st.39, ptr %ld_next91, i32 0, i32 0
  %field93 = getelementptr inbounds nuw %amice.alias.st.41, ptr %raw_box6, i32 0, i32 1
  %callg94 = call ptr @anon.2cf0c1d40cc4e776c7c5e8652d40a35e.50(ptr %1)
  %ld_next95 = load ptr, ptr %callg94, align 8
  %field96 = getelementptr inbounds nuw %amice.alias.st.39, ptr %ld_next95, i32 0, i32 0
  %callg97 = call ptr @anon.2cf0c1d40cc4e776c7c5e8652d40a35e.50(ptr %3)
  %ld_next98 = load ptr, ptr %callg97, align 8
  %field99 = getelementptr inbounds nuw %amice.alias.st.41, ptr %ld_next98, i32 0, i32 0
  %callg100 = call ptr @anon.2cf0c1d40cc4e776c7c5e8652d40a35e.50(ptr %1)
  %ld_next101 = load ptr, ptr %callg100, align 8
  %field102 = getelementptr inbounds nuw %amice.alias.st.39, ptr %ld_next101, i32 0, i32 0
  %callg103 = call ptr @anon.2cf0c1d40cc4e776c7c5e8652d40a35e.49(ptr %19)
  %ld_next104 = load ptr, ptr %callg103, align 8
  %callg105 = call ptr @anon.2cf0c1d40cc4e776c7c5e8652d40a35e.48(ptr %ld_next104)
  %ld_next106 = load ptr, ptr %callg105, align 8
  %callg107 = call ptr @anon.2cf0c1d40cc4e776c7c5e8652d40a35e.46(ptr %ld_next106)
  %ld_next108 = load ptr, ptr %callg107, align 8
  %field109 = getelementptr inbounds nuw %amice.alias.st.40, ptr %ld_next108, i32 0, i32 1
  %callg110 = call ptr @anon.2cf0c1d40cc4e776c7c5e8652d40a35e.47(ptr %16)
  %ld_next111 = load ptr, ptr %callg110, align 8
  %callg112 = call ptr @anon.2cf0c1d40cc4e776c7c5e8652d40a35e.51(ptr %ld_next111)
  %ld_next113 = load ptr, ptr %callg112, align 8
  %callg114 = call ptr @anon.2cf0c1d40cc4e776c7c5e8652d40a35e.46(ptr %ld_next113)
  %ld_next115 = load ptr, ptr %callg114, align 8
  %callg116 = call ptr @anon.2cf0c1d40cc4e776c7c5e8652d40a35e.46(ptr %ld_next115)
  %ld_next117 = load ptr, ptr %callg116, align 8
  %field118 = getelementptr inbounds nuw %amice.alias.st.44, ptr %ld_next117, i32 0, i32 0
  %callg119 = call ptr @anon.2cf0c1d40cc4e776c7c5e8652d40a35e.47(ptr %0)
  %ld_next120 = load ptr, ptr %callg119, align 8
  %field121 = getelementptr inbounds nuw %amice.alias.st.42, ptr %ld_next120, i32 0, i32 0
  %callg122 = call ptr @anon.2cf0c1d40cc4e776c7c5e8652d40a35e.51(ptr %12)
  %ld_next123 = load ptr, ptr %callg122, align 8
  %callg124 = call ptr @anon.2cf0c1d40cc4e776c7c5e8652d40a35e.49(ptr %ld_next123)
  %ld_next125 = load ptr, ptr %callg124, align 8
  %callg126 = call ptr @anon.2cf0c1d40cc4e776c7c5e8652d40a35e.46(ptr %ld_next125)
  %ld_next127 = load ptr, ptr %callg126, align 8
  %field128 = getelementptr inbounds nuw %amice.alias.st.40, ptr %ld_next127, i32 0, i32 0
  store i32 %a, ptr %field, align 4
    #dbg_declare(ptr poison, !636, !DIExpression(), !658)
  store i32 %b, ptr %field69, align 4
    #dbg_declare(ptr poison, !637, !DIExpression(), !659)
  store i32 %c, ptr %field74, align 4
    #dbg_declare(ptr poison, !638, !DIExpression(), !660)
    #dbg_declare(ptr poison, !639, !DIExpression(), !661)
  store i32 %a, ptr %field79, align 4, !dbg !662
  %21 = getelementptr inbounds i8, ptr %field84, i64 4, !dbg !662
  store i32 %b, ptr %21, align 4, !dbg !662
  %22 = getelementptr inbounds i8, ptr %field87, i64 8, !dbg !662
  store i32 %c, ptr %22, align 4, !dbg !662
  %x = load i32, ptr %field92, align 4, !dbg !663
  store i32 %x, ptr %field93, align 4, !dbg !663
    #dbg_declare(ptr poison, !646, !DIExpression(), !664)
  %23 = getelementptr inbounds i8, ptr %field96, i64 4, !dbg !665
  %y = load i32, ptr %23, align 4, !dbg !665
  store i32 %y, ptr %field99, align 4, !dbg !665
    #dbg_declare(ptr poison, !648, !DIExpression(), !666)
  %24 = getelementptr inbounds i8, ptr %field102, i64 8, !dbg !667
  %z = load i32, ptr %24, align 4, !dbg !667
  store i32 %z, ptr %field109, align 4, !dbg !667
    #dbg_declare(ptr poison, !650, !DIExpression(), !668)
  %25 = call { i32, i1 } @llvm.sadd.with.overflow.i32(i32 %x, i32 %y), !dbg !669
  %_10.0 = extractvalue { i32, i1 } %25, 0, !dbg !669
  %_10.1 = extractvalue { i32, i1 } %25, 1, !dbg !669
  br i1 %_10.1, label %panic, label %bb1, !dbg !669

bb1:                                              ; preds = %start
  %26 = call { i32, i1 } @llvm.sadd.with.overflow.i32(i32 %_10.0, i32 %z), !dbg !669
  %_11.0 = extractvalue { i32, i1 } %26, 0, !dbg !669
  %_11.1 = extractvalue { i32, i1 } %26, 1, !dbg !669
  br i1 %_11.1, label %panic1, label %bb2, !dbg !669

panic:                                            ; preds = %start
; call core::panicking::panic_const::panic_const_add_overflow
  call void @_RNvNtNtCsiJgtBcGlDou_4core9panicking11panic_const24panic_const_add_overflow(ptr align 8 @alloc_785b37d3a73753d7b9e8d3ff0a41694b) #13, !dbg !669
  unreachable, !dbg !669

bb2:                                              ; preds = %bb1
  store i32 %_11.0, ptr %field118, align 4, !dbg !669
    #dbg_declare(ptr poison, !652, !DIExpression(), !670)
  %27 = call { i32, i1 } @llvm.smul.with.overflow.i32(i32 %x, i32 %y), !dbg !671
  %_13.0 = extractvalue { i32, i1 } %27, 0, !dbg !671
  %_13.1 = extractvalue { i32, i1 } %27, 1, !dbg !671
  br i1 %_13.1, label %panic2, label %bb3, !dbg !671

panic1:                                           ; preds = %bb1
; call core::panicking::panic_const::panic_const_add_overflow
  call void @_RNvNtNtCsiJgtBcGlDou_4core9panicking11panic_const24panic_const_add_overflow(ptr align 8 @alloc_785b37d3a73753d7b9e8d3ff0a41694b) #13, !dbg !669
  unreachable, !dbg !669

bb3:                                              ; preds = %bb2
  store i32 %_13.0, ptr %field121, align 4, !dbg !671
    #dbg_declare(ptr poison, !654, !DIExpression(), !672)
  %28 = call { i32, i1 } @llvm.sadd.with.overflow.i32(i32 %_11.0, i32 %_13.0), !dbg !673
  %_15.0 = extractvalue { i32, i1 } %28, 0, !dbg !673
  %_15.1 = extractvalue { i32, i1 } %28, 1, !dbg !673
  br i1 %_15.1, label %panic3, label %bb4, !dbg !673

panic2:                                           ; preds = %bb2
; call core::panicking::panic_const::panic_const_mul_overflow
  call void @_RNvNtNtCsiJgtBcGlDou_4core9panicking11panic_const24panic_const_mul_overflow(ptr align 8 @alloc_f48da773f8f56efc16b3e15c79f7c487) #13, !dbg !671
  unreachable, !dbg !671

bb4:                                              ; preds = %bb3
  %29 = call { i32, i1 } @llvm.ssub.with.overflow.i32(i32 %_15.0, i32 %z), !dbg !673
  %_16.0 = extractvalue { i32, i1 } %29, 0, !dbg !673
  %_16.1 = extractvalue { i32, i1 } %29, 1, !dbg !673
  br i1 %_16.1, label %panic4, label %bb5, !dbg !673

panic3:                                           ; preds = %bb3
; call core::panicking::panic_const::panic_const_add_overflow
  call void @_RNvNtNtCsiJgtBcGlDou_4core9panicking11panic_const24panic_const_add_overflow(ptr align 8 @alloc_a9355c217b23efe354d139adc3669940) #13, !dbg !673
  unreachable, !dbg !673

bb5:                                              ; preds = %bb4
  store i32 %_16.0, ptr %field128, align 4, !dbg !673
    #dbg_declare(ptr poison, !656, !DIExpression(), !674)
; call alias_access_test::set_sink
  call void @_RNvCs9dAga0YNYgM_17alias_access_test8set_sink(i32 %_16.0) #15, !dbg !675
  ret i32 %_16.0, !dbg !676

panic4:                                           ; preds = %bb4
; call core::panicking::panic_const::panic_const_sub_overflow
  call void @_RNvNtNtCsiJgtBcGlDou_4core9panicking11panic_const24panic_const_sub_overflow(ptr align 8 @alloc_a9355c217b23efe354d139adc3669940) #13, !dbg !673
  unreachable, !dbg !673
}

; alias_access_test::test_loop_locals
; Function Attrs: noinline nonlazybind uwtable
define internal i32 @_RNvCs9dAga0YNYgM_17alias_access_test16test_loop_locals(i32 %n) unnamed_addr #2 !dbg !677 {
start:
  %raw_box = alloca %amice.alias.st.46, align 8
  %raw_box6 = alloca %amice.alias.st.47, align 8
  %raw_box7 = alloca %amice.alias.st.48, align 8
  %raw_box8 = alloca %amice.alias.st.49, align 8
  %raw_box9 = alloca %amice.alias.st.50, align 8
  %raw_box10 = alloca %amice.alias.st.51, align 8
  %raw_box11 = alloca %amice.alias.st.52, align 8
  %0 = alloca { ptr, ptr, ptr, ptr, ptr, ptr }, align 8
  %slot = getelementptr inbounds nuw { ptr, ptr, ptr, ptr, ptr, ptr }, ptr %0, i32 0, i32 2
  store ptr %raw_box7, ptr %slot, align 8
  %1 = alloca { ptr, ptr, ptr, ptr, ptr, ptr }, align 8
  %slot12 = getelementptr inbounds nuw { ptr, ptr, ptr, ptr, ptr, ptr }, ptr %1, i32 0, i32 4
  store ptr %raw_box11, ptr %slot12, align 8
  %2 = alloca { ptr, ptr, ptr, ptr, ptr, ptr }, align 8
  %slot13 = getelementptr inbounds nuw { ptr, ptr, ptr, ptr, ptr, ptr }, ptr %2, i32 0, i32 0
  store ptr %1, ptr %slot13, align 8
  %slot14 = getelementptr inbounds nuw { ptr, ptr, ptr, ptr, ptr, ptr }, ptr %2, i32 0, i32 5
  store ptr %raw_box11, ptr %slot14, align 8
  %slot15 = getelementptr inbounds nuw { ptr, ptr, ptr, ptr, ptr, ptr }, ptr %2, i32 0, i32 4
  store ptr %raw_box9, ptr %slot15, align 8
  %slot16 = getelementptr inbounds nuw { ptr, ptr, ptr, ptr, ptr, ptr }, ptr %2, i32 0, i32 3
  store ptr %raw_box11, ptr %slot16, align 8
  %slot17 = getelementptr inbounds nuw { ptr, ptr, ptr, ptr, ptr, ptr }, ptr %2, i32 0, i32 2
  store ptr %raw_box9, ptr %slot17, align 8
  %3 = alloca { ptr, ptr, ptr, ptr, ptr, ptr }, align 8
  %slot18 = getelementptr inbounds nuw { ptr, ptr, ptr, ptr, ptr, ptr }, ptr %3, i32 0, i32 3
  store ptr %0, ptr %slot18, align 8
  %slot19 = getelementptr inbounds nuw { ptr, ptr, ptr, ptr, ptr, ptr }, ptr %3, i32 0, i32 1
  store ptr %0, ptr %slot19, align 8
  %4 = alloca { ptr, ptr, ptr, ptr, ptr, ptr }, align 8
  %slot20 = getelementptr inbounds nuw { ptr, ptr, ptr, ptr, ptr, ptr }, ptr %4, i32 0, i32 0
  store ptr %raw_box8, ptr %slot20, align 8
  %slot21 = getelementptr inbounds nuw { ptr, ptr, ptr, ptr, ptr, ptr }, ptr %4, i32 0, i32 5
  store ptr %1, ptr %slot21, align 8
  %slot22 = getelementptr inbounds nuw { ptr, ptr, ptr, ptr, ptr, ptr }, ptr %4, i32 0, i32 1
  store ptr %raw_box9, ptr %slot22, align 8
  %slot23 = getelementptr inbounds nuw { ptr, ptr, ptr, ptr, ptr, ptr }, ptr %4, i32 0, i32 3
  store ptr %0, ptr %slot23, align 8
  %slot24 = getelementptr inbounds nuw { ptr, ptr, ptr, ptr, ptr, ptr }, ptr %4, i32 0, i32 2
  store ptr %raw_box9, ptr %slot24, align 8
  %5 = alloca { ptr, ptr, ptr, ptr, ptr, ptr }, align 8
  %slot25 = getelementptr inbounds nuw { ptr, ptr, ptr, ptr, ptr, ptr }, ptr %5, i32 0, i32 2
  store ptr %raw_box9, ptr %slot25, align 8
  %6 = alloca { ptr, ptr, ptr, ptr, ptr, ptr }, align 8
  %slot26 = getelementptr inbounds nuw { ptr, ptr, ptr, ptr, ptr, ptr }, ptr %6, i32 0, i32 2
  store ptr %raw_box6, ptr %slot26, align 8
  %slot27 = getelementptr inbounds nuw { ptr, ptr, ptr, ptr, ptr, ptr }, ptr %6, i32 0, i32 3
  store ptr %raw_box8, ptr %slot27, align 8
  %7 = alloca { ptr, ptr, ptr, ptr, ptr, ptr }, align 8
  %slot28 = getelementptr inbounds nuw { ptr, ptr, ptr, ptr, ptr, ptr }, ptr %7, i32 0, i32 5
  store ptr %1, ptr %slot28, align 8
  %slot29 = getelementptr inbounds nuw { ptr, ptr, ptr, ptr, ptr, ptr }, ptr %7, i32 0, i32 4
  store ptr %3, ptr %slot29, align 8
  %slot30 = getelementptr inbounds nuw { ptr, ptr, ptr, ptr, ptr, ptr }, ptr %7, i32 0, i32 3
  store ptr %6, ptr %slot30, align 8
  %slot31 = getelementptr inbounds nuw { ptr, ptr, ptr, ptr, ptr, ptr }, ptr %7, i32 0, i32 0
  store ptr %1, ptr %slot31, align 8
  %8 = alloca { ptr, ptr, ptr, ptr, ptr, ptr }, align 8
  %slot32 = getelementptr inbounds nuw { ptr, ptr, ptr, ptr, ptr, ptr }, ptr %8, i32 0, i32 4
  store ptr %raw_box7, ptr %slot32, align 8
  %slot33 = getelementptr inbounds nuw { ptr, ptr, ptr, ptr, ptr, ptr }, ptr %8, i32 0, i32 3
  store ptr %raw_box11, ptr %slot33, align 8
  %slot34 = getelementptr inbounds nuw { ptr, ptr, ptr, ptr, ptr, ptr }, ptr %8, i32 0, i32 1
  store ptr %3, ptr %slot34, align 8
  %slot35 = getelementptr inbounds nuw { ptr, ptr, ptr, ptr, ptr, ptr }, ptr %8, i32 0, i32 5
  store ptr %2, ptr %slot35, align 8
  %slot36 = getelementptr inbounds nuw { ptr, ptr, ptr, ptr, ptr, ptr }, ptr %8, i32 0, i32 2
  store ptr %raw_box10, ptr %slot36, align 8
  %9 = alloca { ptr, ptr, ptr, ptr, ptr, ptr }, align 8
  %10 = alloca { ptr, ptr, ptr, ptr, ptr, ptr }, align 8
  %11 = alloca { ptr, ptr, ptr, ptr, ptr, ptr }, align 8
  %slot37 = getelementptr inbounds nuw { ptr, ptr, ptr, ptr, ptr, ptr }, ptr %11, i32 0, i32 1
  store ptr %raw_box, ptr %slot37, align 8
  %slot38 = getelementptr inbounds nuw { ptr, ptr, ptr, ptr, ptr, ptr }, ptr %11, i32 0, i32 4
  store ptr %raw_box7, ptr %slot38, align 8
  %12 = alloca { ptr, ptr, ptr, ptr, ptr, ptr }, align 8
  %slot39 = getelementptr inbounds nuw { ptr, ptr, ptr, ptr, ptr, ptr }, ptr %12, i32 0, i32 3
  store ptr %11, ptr %slot39, align 8
  %13 = alloca { ptr, ptr, ptr, ptr, ptr, ptr }, align 8
  %slot40 = getelementptr inbounds nuw { ptr, ptr, ptr, ptr, ptr, ptr }, ptr %13, i32 0, i32 0
  store ptr %raw_box10, ptr %slot40, align 8
  %slot41 = getelementptr inbounds nuw { ptr, ptr, ptr, ptr, ptr, ptr }, ptr %13, i32 0, i32 4
  store ptr %8, ptr %slot41, align 8
  %slot42 = getelementptr inbounds nuw { ptr, ptr, ptr, ptr, ptr, ptr }, ptr %13, i32 0, i32 1
  store ptr %raw_box8, ptr %slot42, align 8
  %slot43 = getelementptr inbounds nuw { ptr, ptr, ptr, ptr, ptr, ptr }, ptr %13, i32 0, i32 3
  store ptr %12, ptr %slot43, align 8
  %slot44 = getelementptr inbounds nuw { ptr, ptr, ptr, ptr, ptr, ptr }, ptr %13, i32 0, i32 5
  store ptr %raw_box, ptr %slot44, align 8
  %14 = alloca { ptr, ptr, ptr, ptr, ptr, ptr }, align 8
  %15 = alloca { ptr, ptr, ptr, ptr, ptr, ptr }, align 8
  %slot45 = getelementptr inbounds nuw { ptr, ptr, ptr, ptr, ptr, ptr }, ptr %15, i32 0, i32 5
  store ptr %raw_box7, ptr %slot45, align 8
  %slot46 = getelementptr inbounds nuw { ptr, ptr, ptr, ptr, ptr, ptr }, ptr %15, i32 0, i32 2
  store ptr %6, ptr %slot46, align 8
  %slot47 = getelementptr inbounds nuw { ptr, ptr, ptr, ptr, ptr, ptr }, ptr %15, i32 0, i32 0
  store ptr %14, ptr %slot47, align 8
  %slot48 = getelementptr inbounds nuw { ptr, ptr, ptr, ptr, ptr, ptr }, ptr %15, i32 0, i32 1
  store ptr %raw_box9, ptr %slot48, align 8
  %slot49 = getelementptr inbounds nuw { ptr, ptr, ptr, ptr, ptr, ptr }, ptr %15, i32 0, i32 4
  store ptr %9, ptr %slot49, align 8
  %16 = alloca { ptr, ptr, ptr, ptr, ptr, ptr }, align 8
  %slot50 = getelementptr inbounds nuw { ptr, ptr, ptr, ptr, ptr, ptr }, ptr %16, i32 0, i32 4
  store ptr %0, ptr %slot50, align 8
  %slot51 = getelementptr inbounds nuw { ptr, ptr, ptr, ptr, ptr, ptr }, ptr %16, i32 0, i32 5
  store ptr %14, ptr %slot51, align 8
  %slot52 = getelementptr inbounds nuw { ptr, ptr, ptr, ptr, ptr, ptr }, ptr %16, i32 0, i32 3
  store ptr %0, ptr %slot52, align 8
  %17 = alloca { ptr, ptr, ptr, ptr, ptr, ptr }, align 8
  %slot53 = getelementptr inbounds nuw { ptr, ptr, ptr, ptr, ptr, ptr }, ptr %17, i32 0, i32 1
  store ptr %10, ptr %slot53, align 8
  %slot54 = getelementptr inbounds nuw { ptr, ptr, ptr, ptr, ptr, ptr }, ptr %17, i32 0, i32 0
  store ptr %raw_box, ptr %slot54, align 8
  %slot55 = getelementptr inbounds nuw { ptr, ptr, ptr, ptr, ptr, ptr }, ptr %17, i32 0, i32 4
  store ptr %raw_box, ptr %slot55, align 8
  %18 = alloca { ptr, ptr, ptr, ptr, ptr, ptr }, align 8
  %slot56 = getelementptr inbounds nuw { ptr, ptr, ptr, ptr, ptr, ptr }, ptr %18, i32 0, i32 0
  store ptr %12, ptr %slot56, align 8
  %slot57 = getelementptr inbounds nuw { ptr, ptr, ptr, ptr, ptr, ptr }, ptr %18, i32 0, i32 4
  store ptr %11, ptr %slot57, align 8
  %slot58 = getelementptr inbounds nuw { ptr, ptr, ptr, ptr, ptr, ptr }, ptr %18, i32 0, i32 2
  store ptr %2, ptr %slot58, align 8
  %slot59 = getelementptr inbounds nuw { ptr, ptr, ptr, ptr, ptr, ptr }, ptr %18, i32 0, i32 5
  store ptr %7, ptr %slot59, align 8
  %19 = alloca { ptr, ptr, ptr, ptr, ptr, ptr }, align 8
  %slot60 = getelementptr inbounds nuw { ptr, ptr, ptr, ptr, ptr, ptr }, ptr %19, i32 0, i32 2
  store ptr %1, ptr %slot60, align 8
  %slot61 = getelementptr inbounds nuw { ptr, ptr, ptr, ptr, ptr, ptr }, ptr %19, i32 0, i32 1
  store ptr %18, ptr %slot61, align 8
  %slot62 = getelementptr inbounds nuw { ptr, ptr, ptr, ptr, ptr, ptr }, ptr %19, i32 0, i32 5
  store ptr %13, ptr %slot62, align 8
  %slot63 = getelementptr inbounds nuw { ptr, ptr, ptr, ptr, ptr, ptr }, ptr %19, i32 0, i32 0
  store ptr %raw_box9, ptr %slot63, align 8
  %slot64 = getelementptr inbounds nuw { ptr, ptr, ptr, ptr, ptr, ptr }, ptr %19, i32 0, i32 4
  store ptr %15, ptr %slot64, align 8
  %20 = alloca { ptr, ptr, ptr, ptr, ptr, ptr }, align 8
  %callg = call ptr @anon.2cf0c1d40cc4e776c7c5e8652d40a35e.52(ptr %13)
  %ld_next = load ptr, ptr %callg, align 8
  %callg65 = call ptr @anon.2cf0c1d40cc4e776c7c5e8652d40a35e.53(ptr %ld_next)
  %ld_next66 = load ptr, ptr %callg65, align 8
  %callg67 = call ptr @anon.2cf0c1d40cc4e776c7c5e8652d40a35e.54(ptr %ld_next66)
  %ld_next68 = load ptr, ptr %callg67, align 8
  %callg69 = call ptr @anon.2cf0c1d40cc4e776c7c5e8652d40a35e.52(ptr %ld_next68)
  %ld_next70 = load ptr, ptr %callg69, align 8
  %field = getelementptr inbounds nuw %amice.alias.st.52, ptr %ld_next70, i32 0, i32 1
  %field71 = getelementptr inbounds nuw %amice.alias.st.47, ptr %raw_box6, i32 0, i32 1
  %callg72 = call ptr @anon.2cf0c1d40cc4e776c7c5e8652d40a35e.55(ptr %8)
  %ld_next73 = load ptr, ptr %callg72, align 8
  %field74 = getelementptr inbounds nuw %amice.alias.st.52, ptr %ld_next73, i32 0, i32 2
  %callg75 = call ptr @anon.2cf0c1d40cc4e776c7c5e8652d40a35e.53(ptr %8)
  %ld_next76 = load ptr, ptr %callg75, align 8
  %callg77 = call ptr @anon.2cf0c1d40cc4e776c7c5e8652d40a35e.52(ptr %ld_next76)
  %ld_next78 = load ptr, ptr %callg77, align 8
  %field79 = getelementptr inbounds nuw %amice.alias.st.50, ptr %ld_next78, i32 0, i32 1
  %field80 = getelementptr inbounds nuw %amice.alias.st.50, ptr %raw_box9, i32 0, i32 0
  %callg81 = call ptr @anon.2cf0c1d40cc4e776c7c5e8652d40a35e.56(ptr %2)
  %ld_next82 = load ptr, ptr %callg81, align 8
  %field83 = getelementptr inbounds nuw %amice.alias.st.50, ptr %ld_next82, i32 0, i32 0
  %callg84 = call ptr @anon.2cf0c1d40cc4e776c7c5e8652d40a35e.56(ptr %4)
  %ld_next85 = load ptr, ptr %callg84, align 8
  %field86 = getelementptr inbounds nuw %amice.alias.st.50, ptr %ld_next85, i32 0, i32 0
  %field87 = getelementptr inbounds nuw %amice.alias.st.49, ptr %raw_box8, i32 0, i32 0
  %callg88 = call ptr @anon.2cf0c1d40cc4e776c7c5e8652d40a35e.55(ptr %4)
  %ld_next89 = load ptr, ptr %callg88, align 8
  %callg90 = call ptr @anon.2cf0c1d40cc4e776c7c5e8652d40a35e.56(ptr %ld_next89)
  %ld_next91 = load ptr, ptr %callg90, align 8
  %field92 = getelementptr inbounds nuw %amice.alias.st.48, ptr %ld_next91, i32 0, i32 1
  %callg93 = call ptr @anon.2cf0c1d40cc4e776c7c5e8652d40a35e.53(ptr %19)
  %ld_next94 = load ptr, ptr %callg93, align 8
  %callg95 = call ptr @anon.2cf0c1d40cc4e776c7c5e8652d40a35e.57(ptr %ld_next94)
  %ld_next96 = load ptr, ptr %callg95, align 8
  %field97 = getelementptr inbounds nuw %amice.alias.st.49, ptr %ld_next96, i32 0, i32 0
  %callg98 = call ptr @anon.2cf0c1d40cc4e776c7c5e8652d40a35e.55(ptr %12)
  %ld_next99 = load ptr, ptr %callg98, align 8
  %callg100 = call ptr @anon.2cf0c1d40cc4e776c7c5e8652d40a35e.57(ptr %ld_next99)
  %ld_next101 = load ptr, ptr %callg100, align 8
  %field102 = getelementptr inbounds nuw %amice.alias.st.46, ptr %ld_next101, i32 0, i32 0
  %callg103 = call ptr @anon.2cf0c1d40cc4e776c7c5e8652d40a35e.53(ptr %15)
  %ld_next104 = load ptr, ptr %callg103, align 8
  %field105 = getelementptr inbounds nuw %amice.alias.st.48, ptr %ld_next104, i32 0, i32 1
  %callg106 = call ptr @anon.2cf0c1d40cc4e776c7c5e8652d40a35e.54(ptr %18)
  %ld_next107 = load ptr, ptr %callg106, align 8
  %callg108 = call ptr @anon.2cf0c1d40cc4e776c7c5e8652d40a35e.55(ptr %ld_next107)
  %ld_next109 = load ptr, ptr %callg108, align 8
  %callg110 = call ptr @anon.2cf0c1d40cc4e776c7c5e8652d40a35e.57(ptr %ld_next109)
  %ld_next111 = load ptr, ptr %callg110, align 8
  %field112 = getelementptr inbounds nuw %amice.alias.st.46, ptr %ld_next111, i32 0, i32 0
  %callg113 = call ptr @anon.2cf0c1d40cc4e776c7c5e8652d40a35e.55(ptr %12)
  %ld_next114 = load ptr, ptr %callg113, align 8
  %callg115 = call ptr @anon.2cf0c1d40cc4e776c7c5e8652d40a35e.52(ptr %ld_next114)
  %ld_next116 = load ptr, ptr %callg115, align 8
  %field117 = getelementptr inbounds nuw %amice.alias.st.48, ptr %ld_next116, i32 0, i32 0
  %callg118 = call ptr @anon.2cf0c1d40cc4e776c7c5e8652d40a35e.52(ptr %8)
  %ld_next119 = load ptr, ptr %callg118, align 8
  %field120 = getelementptr inbounds nuw %amice.alias.st.48, ptr %ld_next119, i32 0, i32 0
  %callg121 = call ptr @anon.2cf0c1d40cc4e776c7c5e8652d40a35e.52(ptr %19)
  %ld_next122 = load ptr, ptr %callg121, align 8
  %callg123 = call ptr @anon.2cf0c1d40cc4e776c7c5e8652d40a35e.53(ptr %ld_next122)
  %ld_next124 = load ptr, ptr %callg123, align 8
  %field125 = getelementptr inbounds nuw %amice.alias.st.48, ptr %ld_next124, i32 0, i32 0
  %callg126 = call ptr @anon.2cf0c1d40cc4e776c7c5e8652d40a35e.57(ptr %3)
  %ld_next127 = load ptr, ptr %callg126, align 8
  %callg128 = call ptr @anon.2cf0c1d40cc4e776c7c5e8652d40a35e.56(ptr %ld_next127)
  %ld_next129 = load ptr, ptr %callg128, align 8
  %field130 = getelementptr inbounds nuw %amice.alias.st.48, ptr %ld_next129, i32 0, i32 0
  %callg131 = call ptr @anon.2cf0c1d40cc4e776c7c5e8652d40a35e.53(ptr %15)
  %ld_next132 = load ptr, ptr %callg131, align 8
  %field133 = getelementptr inbounds nuw %amice.alias.st.48, ptr %ld_next132, i32 0, i32 0
  %callg134 = call ptr @anon.2cf0c1d40cc4e776c7c5e8652d40a35e.56(ptr %15)
  %ld_next135 = load ptr, ptr %callg134, align 8
  %callg136 = call ptr @anon.2cf0c1d40cc4e776c7c5e8652d40a35e.56(ptr %ld_next135)
  %ld_next137 = load ptr, ptr %callg136, align 8
  %field138 = getelementptr inbounds nuw %amice.alias.st.47, ptr %ld_next137, i32 0, i32 0
  %field139 = getelementptr inbounds nuw %amice.alias.st.47, ptr %raw_box6, i32 0, i32 1
  %callg140 = call ptr @anon.2cf0c1d40cc4e776c7c5e8652d40a35e.53(ptr %8)
  %ld_next141 = load ptr, ptr %callg140, align 8
  %callg142 = call ptr @anon.2cf0c1d40cc4e776c7c5e8652d40a35e.52(ptr %ld_next141)
  %ld_next143 = load ptr, ptr %callg142, align 8
  %field144 = getelementptr inbounds nuw %amice.alias.st.50, ptr %ld_next143, i32 0, i32 1
  %field145 = getelementptr inbounds nuw %amice.alias.st.51, ptr %raw_box10, i32 0, i32 0
  %callg146 = call ptr @anon.2cf0c1d40cc4e776c7c5e8652d40a35e.55(ptr %7)
  %ld_next147 = load ptr, ptr %callg146, align 8
  %callg148 = call ptr @anon.2cf0c1d40cc4e776c7c5e8652d40a35e.56(ptr %ld_next147)
  %ld_next149 = load ptr, ptr %callg148, align 8
  %field150 = getelementptr inbounds nuw %amice.alias.st.47, ptr %ld_next149, i32 0, i32 1
  %callg151 = call ptr @anon.2cf0c1d40cc4e776c7c5e8652d40a35e.57(ptr %15)
  %ld_next152 = load ptr, ptr %callg151, align 8
  %field153 = getelementptr inbounds nuw %amice.alias.st.50, ptr %ld_next152, i32 0, i32 1
  %callg154 = call ptr @anon.2cf0c1d40cc4e776c7c5e8652d40a35e.53(ptr %19)
  %ld_next155 = load ptr, ptr %callg154, align 8
  %callg156 = call ptr @anon.2cf0c1d40cc4e776c7c5e8652d40a35e.54(ptr %ld_next155)
  %ld_next157 = load ptr, ptr %callg156, align 8
  %field158 = getelementptr inbounds nuw %amice.alias.st.51, ptr %ld_next157, i32 0, i32 0
  %callg159 = call ptr @anon.2cf0c1d40cc4e776c7c5e8652d40a35e.54(ptr %2)
  %ld_next160 = load ptr, ptr %callg159, align 8
  %callg161 = call ptr @anon.2cf0c1d40cc4e776c7c5e8652d40a35e.52(ptr %ld_next160)
  %ld_next162 = load ptr, ptr %callg161, align 8
  %field163 = getelementptr inbounds nuw %amice.alias.st.52, ptr %ld_next162, i32 0, i32 2
  %callg164 = call ptr @anon.2cf0c1d40cc4e776c7c5e8652d40a35e.56(ptr %8)
  %ld_next165 = load ptr, ptr %callg164, align 8
  %field166 = getelementptr inbounds nuw %amice.alias.st.51, ptr %ld_next165, i32 0, i32 0
  %callg167 = call ptr @anon.2cf0c1d40cc4e776c7c5e8652d40a35e.52(ptr %13)
  %ld_next168 = load ptr, ptr %callg167, align 8
  %callg169 = call ptr @anon.2cf0c1d40cc4e776c7c5e8652d40a35e.55(ptr %ld_next168)
  %ld_next170 = load ptr, ptr %callg169, align 8
  %field171 = getelementptr inbounds nuw %amice.alias.st.52, ptr %ld_next170, i32 0, i32 0
  %callg172 = call ptr @anon.2cf0c1d40cc4e776c7c5e8652d40a35e.56(ptr %15)
  %ld_next173 = load ptr, ptr %callg172, align 8
  %callg174 = call ptr @anon.2cf0c1d40cc4e776c7c5e8652d40a35e.56(ptr %ld_next173)
  %ld_next175 = load ptr, ptr %callg174, align 8
  %field176 = getelementptr inbounds nuw %amice.alias.st.47, ptr %ld_next175, i32 0, i32 1
  %field177 = getelementptr inbounds nuw %amice.alias.st.50, ptr %raw_box9, i32 0, i32 1
  %callg178 = call ptr @anon.2cf0c1d40cc4e776c7c5e8652d40a35e.53(ptr %18)
  %ld_next179 = load ptr, ptr %callg178, align 8
  %callg180 = call ptr @anon.2cf0c1d40cc4e776c7c5e8652d40a35e.53(ptr %ld_next179)
  %ld_next181 = load ptr, ptr %callg180, align 8
  %callg182 = call ptr @anon.2cf0c1d40cc4e776c7c5e8652d40a35e.52(ptr %ld_next181)
  %ld_next183 = load ptr, ptr %callg182, align 8
  %field184 = getelementptr inbounds nuw %amice.alias.st.52, ptr %ld_next183, i32 0, i32 2
  %field185 = getelementptr inbounds nuw %amice.alias.st.52, ptr %raw_box11, i32 0, i32 2
  %callg186 = call ptr @anon.2cf0c1d40cc4e776c7c5e8652d40a35e.57(ptr %15)
  %ld_next187 = load ptr, ptr %callg186, align 8
  %field188 = getelementptr inbounds nuw %amice.alias.st.50, ptr %ld_next187, i32 0, i32 1
  store i32 %n, ptr %field, align 4
    #dbg_declare(ptr poison, !679, !DIExpression(), !704)
    #dbg_declare(ptr poison, !680, !DIExpression(), !705)
    #dbg_declare(ptr poison, !682, !DIExpression(), !706)
    #dbg_declare(ptr poison, !684, !DIExpression(), !707)
    #dbg_declare(ptr poison, !686, !DIExpression(), !708)
    #dbg_declare(ptr poison, !688, !DIExpression(), !709)
    #dbg_declare(ptr poison, !700, !DIExpression(), !710)
  store i32 0, ptr %field71, align 4, !dbg !711
  store i32 1, ptr %field74, align 4, !dbg !712
  store i32 0, ptr %field79, align 4, !dbg !713
  %_6 = icmp sgt i32 %n, 10, !dbg !714
  br i1 %_6, label %bb1, label %bb2, !dbg !714

bb2:                                              ; preds = %start
  store i32 %n, ptr %field80, align 4, !dbg !715
  br label %bb3, !dbg !716

bb1:                                              ; preds = %start
  store i32 10, ptr %field83, align 4, !dbg !717
  br label %bb3, !dbg !716

bb3:                                              ; preds = %bb1, %bb2
  %_9 = load i32, ptr %field86, align 4, !dbg !718
; call <core::ops::range::RangeInclusive<i32>>::new
  call void @_RNvMs5_NtNtCsiJgtBcGlDou_4core3ops5rangeINtB5_14RangeInclusivelE3newCs9dAga0YNYgM_17alias_access_test(ptr sret([12 x i8]) align 4 %field87, i32 1, i32 %_9) #14, !dbg !719
; call <core::ops::range::RangeInclusive<i32> as core::iter::traits::collect::IntoIterator>::into_iter
  call void @_RNvXNtNtNtCsiJgtBcGlDou_4core4iter6traits7collectINtNtNtB8_3ops5range14RangeInclusivelENtB2_12IntoIterator9into_iterCs9dAga0YNYgM_17alias_access_test(ptr sret([12 x i8]) align 4 %field92, ptr align 4 %field97) #14, !dbg !719
  call void @llvm.memcpy.p0.p0.i64(ptr align 4 %field102, ptr align 4 %field105, i64 12, i1 false), !dbg !719
  br label %bb6, !dbg !720

bb6:                                              ; preds = %bb15, %bb3
; call <core::ops::range::RangeInclusive<i32> as core::iter::traits::iterator::Iterator>::next
  %21 = call { i32, i32 } @_RNvXsd_NtNtCsiJgtBcGlDou_4core4iter5rangeINtNtNtB9_3ops5range14RangeInclusivelENtNtNtB7_6traits8iterator8Iterator4nextCs9dAga0YNYgM_17alias_access_test(ptr align 4 %field112) #14, !dbg !709
  %22 = extractvalue { i32, i32 } %21, 0, !dbg !709
  %23 = extractvalue { i32, i32 } %21, 1, !dbg !709
  store i32 %22, ptr %field117, align 4, !dbg !709
  %24 = getelementptr inbounds i8, ptr %field120, i64 4, !dbg !709
  store i32 %23, ptr %24, align 4, !dbg !709
  %25 = load i32, ptr %field125, align 4, !dbg !709
  %26 = getelementptr inbounds i8, ptr %field130, i64 4, !dbg !709
  %27 = load i32, ptr %26, align 4, !dbg !709
  %_13 = zext i32 %25 to i64, !dbg !709
  %28 = trunc nuw i64 %_13 to i1, !dbg !709
  br i1 %28, label %bb9, label %bb10, !dbg !709

bb9:                                              ; preds = %bb6
  %29 = getelementptr inbounds i8, ptr %field133, i64 4, !dbg !721
  %i = load i32, ptr %29, align 4, !dbg !721
  store i32 %i, ptr %field138, align 4, !dbg !721
    #dbg_declare(ptr poison, !698, !DIExpression(), !722)
  %30 = load i32, ptr %field139, align 4, !dbg !723
  %31 = call { i32, i1 } @llvm.sadd.with.overflow.i32(i32 %30, i32 %i), !dbg !723
  %_15.0 = extractvalue { i32, i1 } %31, 0, !dbg !723
  %_15.1 = extractvalue { i32, i1 } %31, 1, !dbg !723
  br i1 %_15.1, label %panic3, label %bb11, !dbg !723

bb10:                                             ; preds = %bb6
  %_21 = load i32, ptr %field144, align 4, !dbg !724
  %_20 = icmp sgt i32 %_21, 0, !dbg !724
  br i1 %_20, label %bb16, label %bb17, !dbg !724

bb17:                                             ; preds = %bb10
  store i32 0, ptr %field145, align 4, !dbg !725
  br label %bb20, !dbg !726

bb16:                                             ; preds = %bb10
  %_22 = load i32, ptr %field150, align 4, !dbg !727
  %_23 = load i32, ptr %field153, align 4, !dbg !728
  %_24 = icmp eq i32 %_23, 0, !dbg !727
  br i1 %_24, label %panic, label %bb18, !dbg !727

bb20:                                             ; preds = %bb19, %bb17
  %_28 = load i32, ptr %field158, align 4, !dbg !729
  %_29 = load i32, ptr %field163, align 4, !dbg !730
  %32 = call { i32, i1 } @llvm.sadd.with.overflow.i32(i32 %_28, i32 %_29), !dbg !729
  %_30.0 = extractvalue { i32, i1 } %32, 0, !dbg !729
  %_30.1 = extractvalue { i32, i1 } %32, 1, !dbg !729
  br i1 %_30.1, label %panic2, label %bb21, !dbg !729

bb18:                                             ; preds = %bb16
  %_25 = icmp eq i32 %_23, -1, !dbg !727
  %_26 = icmp eq i32 %_22, -2147483648, !dbg !727
  %_27 = and i1 %_25, %_26, !dbg !727
  br i1 %_27, label %panic1, label %bb19, !dbg !727

panic:                                            ; preds = %bb16
; call core::panicking::panic_const::panic_const_div_by_zero
  call void @_RNvNtNtCsiJgtBcGlDou_4core9panicking11panic_const23panic_const_div_by_zero(ptr align 8 @alloc_e245596c5938dabc890f33565ffad0d6) #13, !dbg !727
  unreachable, !dbg !727

bb19:                                             ; preds = %bb18
  %33 = sdiv i32 %_22, %_23, !dbg !727
  store i32 %33, ptr %field166, align 4, !dbg !727
  br label %bb20, !dbg !726

panic1:                                           ; preds = %bb18
; call core::panicking::panic_const::panic_const_div_overflow
  call void @_RNvNtNtCsiJgtBcGlDou_4core9panicking11panic_const24panic_const_div_overflow(ptr align 8 @alloc_e245596c5938dabc890f33565ffad0d6) #13, !dbg !727
  unreachable, !dbg !727

bb21:                                             ; preds = %bb20
  store i32 %_30.0, ptr %field171, align 4, !dbg !729
    #dbg_declare(ptr poison, !702, !DIExpression(), !731)
; call alias_access_test::set_sink
  call void @_RNvCs9dAga0YNYgM_17alias_access_test8set_sink(i32 %_30.0) #15, !dbg !732
  ret i32 %_30.0, !dbg !733

panic2:                                           ; preds = %bb20
; call core::panicking::panic_const::panic_const_add_overflow
  call void @_RNvNtNtCsiJgtBcGlDou_4core9panicking11panic_const24panic_const_add_overflow(ptr align 8 @alloc_3b3ac9cbb7fb6162b3eca074e27bc77f) #13, !dbg !729
  unreachable, !dbg !729

bb11:                                             ; preds = %bb9
  store i32 %_15.0, ptr %field176, align 4, !dbg !723
  %_16 = icmp sle i32 %i, 5, !dbg !734
  br i1 %_16, label %bb12, label %bb14, !dbg !734

panic3:                                           ; preds = %bb9
; call core::panicking::panic_const::panic_const_add_overflow
  call void @_RNvNtNtCsiJgtBcGlDou_4core9panicking11panic_const24panic_const_add_overflow(ptr align 8 @alloc_90ecbfea9dae802c06635000d837a6d4) #13, !dbg !723
  unreachable, !dbg !723

bb14:                                             ; preds = %bb13, %bb11
  %34 = load i32, ptr %field177, align 4, !dbg !735
  %35 = call { i32, i1 } @llvm.sadd.with.overflow.i32(i32 %34, i32 1), !dbg !735
  %_18.0 = extractvalue { i32, i1 } %35, 0, !dbg !735
  %_18.1 = extractvalue { i32, i1 } %35, 1, !dbg !735
  br i1 %_18.1, label %panic5, label %bb15, !dbg !735

bb12:                                             ; preds = %bb11
  %36 = load i32, ptr %field184, align 4, !dbg !736
  %37 = call { i32, i1 } @llvm.smul.with.overflow.i32(i32 %36, i32 %i), !dbg !736
  %_17.0 = extractvalue { i32, i1 } %37, 0, !dbg !736
  %_17.1 = extractvalue { i32, i1 } %37, 1, !dbg !736
  br i1 %_17.1, label %panic4, label %bb13, !dbg !736

bb13:                                             ; preds = %bb12
  store i32 %_17.0, ptr %field185, align 4, !dbg !736
  br label %bb14, !dbg !737

panic4:                                           ; preds = %bb12
; call core::panicking::panic_const::panic_const_mul_overflow
  call void @_RNvNtNtCsiJgtBcGlDou_4core9panicking11panic_const24panic_const_mul_overflow(ptr align 8 @alloc_bf8fbd3af1330e7e88ea324689191407) #13, !dbg !736
  unreachable, !dbg !736

bb15:                                             ; preds = %bb14
  store i32 %_18.0, ptr %field188, align 4, !dbg !735
  br label %bb6, !dbg !720

panic5:                                           ; preds = %bb14
; call core::panicking::panic_const::panic_const_add_overflow
  call void @_RNvNtNtCsiJgtBcGlDou_4core9panicking11panic_const24panic_const_add_overflow(ptr align 8 @alloc_f590646bac864c3e390e3753a4923ca2) #13, !dbg !735
  unreachable, !dbg !735

bb8:                                              ; No predecessors!
  unreachable, !dbg !709
}

; alias_access_test::test_swap_locals
; Function Attrs: noinline nonlazybind uwtable
define internal i32 @_RNvCs9dAga0YNYgM_17alias_access_test16test_swap_locals(i32 %a, i32 %b) unnamed_addr #2 !dbg !738 {
start:
  %raw_box = alloca %amice.alias.st.53, align 8
  %raw_box4 = alloca %amice.alias.st.54, align 8
  %raw_box5 = alloca %amice.alias.st.55, align 8
  %raw_box6 = alloca %amice.alias.st.56, align 8
  %raw_box7 = alloca %amice.alias.st.57, align 8
  %0 = alloca { ptr, ptr, ptr, ptr, ptr, ptr }, align 8
  %slot = getelementptr inbounds nuw { ptr, ptr, ptr, ptr, ptr, ptr }, ptr %0, i32 0, i32 5
  store ptr %raw_box5, ptr %slot, align 8
  %slot8 = getelementptr inbounds nuw { ptr, ptr, ptr, ptr, ptr, ptr }, ptr %0, i32 0, i32 2
  store ptr %raw_box7, ptr %slot8, align 8
  %slot9 = getelementptr inbounds nuw { ptr, ptr, ptr, ptr, ptr, ptr }, ptr %0, i32 0, i32 1
  store ptr %raw_box4, ptr %slot9, align 8
  %slot10 = getelementptr inbounds nuw { ptr, ptr, ptr, ptr, ptr, ptr }, ptr %0, i32 0, i32 4
  store ptr %raw_box, ptr %slot10, align 8
  %1 = alloca { ptr, ptr, ptr, ptr, ptr, ptr }, align 8
  %slot11 = getelementptr inbounds nuw { ptr, ptr, ptr, ptr, ptr, ptr }, ptr %1, i32 0, i32 1
  store ptr %raw_box4, ptr %slot11, align 8
  %slot12 = getelementptr inbounds nuw { ptr, ptr, ptr, ptr, ptr, ptr }, ptr %1, i32 0, i32 3
  store ptr %raw_box5, ptr %slot12, align 8
  %slot13 = getelementptr inbounds nuw { ptr, ptr, ptr, ptr, ptr, ptr }, ptr %1, i32 0, i32 4
  store ptr %raw_box6, ptr %slot13, align 8
  %slot14 = getelementptr inbounds nuw { ptr, ptr, ptr, ptr, ptr, ptr }, ptr %1, i32 0, i32 2
  store ptr %raw_box6, ptr %slot14, align 8
  %slot15 = getelementptr inbounds nuw { ptr, ptr, ptr, ptr, ptr, ptr }, ptr %1, i32 0, i32 0
  store ptr %raw_box, ptr %slot15, align 8
  %2 = alloca { ptr, ptr, ptr, ptr, ptr, ptr }, align 8
  %slot16 = getelementptr inbounds nuw { ptr, ptr, ptr, ptr, ptr, ptr }, ptr %2, i32 0, i32 1
  store ptr %1, ptr %slot16, align 8
  %slot17 = getelementptr inbounds nuw { ptr, ptr, ptr, ptr, ptr, ptr }, ptr %2, i32 0, i32 0
  store ptr %raw_box4, ptr %slot17, align 8
  %3 = alloca { ptr, ptr, ptr, ptr, ptr, ptr }, align 8
  %slot18 = getelementptr inbounds nuw { ptr, ptr, ptr, ptr, ptr, ptr }, ptr %3, i32 0, i32 2
  store ptr %raw_box6, ptr %slot18, align 8
  %slot19 = getelementptr inbounds nuw { ptr, ptr, ptr, ptr, ptr, ptr }, ptr %3, i32 0, i32 0
  store ptr %0, ptr %slot19, align 8
  %slot20 = getelementptr inbounds nuw { ptr, ptr, ptr, ptr, ptr, ptr }, ptr %3, i32 0, i32 4
  store ptr %raw_box4, ptr %slot20, align 8
  %4 = alloca { ptr, ptr, ptr, ptr, ptr, ptr }, align 8
  %5 = alloca { ptr, ptr, ptr, ptr, ptr, ptr }, align 8
  %6 = alloca { ptr, ptr, ptr, ptr, ptr, ptr }, align 8
  %slot21 = getelementptr inbounds nuw { ptr, ptr, ptr, ptr, ptr, ptr }, ptr %6, i32 0, i32 5
  store ptr %5, ptr %slot21, align 8
  %slot22 = getelementptr inbounds nuw { ptr, ptr, ptr, ptr, ptr, ptr }, ptr %6, i32 0, i32 0
  store ptr %5, ptr %slot22, align 8
  %7 = alloca { ptr, ptr, ptr, ptr, ptr, ptr }, align 8
  %slot23 = getelementptr inbounds nuw { ptr, ptr, ptr, ptr, ptr, ptr }, ptr %7, i32 0, i32 4
  store ptr %raw_box, ptr %slot23, align 8
  %slot24 = getelementptr inbounds nuw { ptr, ptr, ptr, ptr, ptr, ptr }, ptr %7, i32 0, i32 0
  store ptr %5, ptr %slot24, align 8
  %slot25 = getelementptr inbounds nuw { ptr, ptr, ptr, ptr, ptr, ptr }, ptr %7, i32 0, i32 3
  store ptr %5, ptr %slot25, align 8
  %8 = alloca { ptr, ptr, ptr, ptr, ptr, ptr }, align 8
  %slot26 = getelementptr inbounds nuw { ptr, ptr, ptr, ptr, ptr, ptr }, ptr %8, i32 0, i32 2
  store ptr %raw_box4, ptr %slot26, align 8
  %slot27 = getelementptr inbounds nuw { ptr, ptr, ptr, ptr, ptr, ptr }, ptr %8, i32 0, i32 5
  store ptr %5, ptr %slot27, align 8
  %slot28 = getelementptr inbounds nuw { ptr, ptr, ptr, ptr, ptr, ptr }, ptr %8, i32 0, i32 3
  store ptr %raw_box7, ptr %slot28, align 8
  %slot29 = getelementptr inbounds nuw { ptr, ptr, ptr, ptr, ptr, ptr }, ptr %8, i32 0, i32 1
  store ptr %raw_box7, ptr %slot29, align 8
  %9 = alloca { ptr, ptr, ptr, ptr, ptr, ptr }, align 8
  %10 = alloca { ptr, ptr, ptr, ptr, ptr, ptr }, align 8
  %slot30 = getelementptr inbounds nuw { ptr, ptr, ptr, ptr, ptr, ptr }, ptr %10, i32 0, i32 0
  store ptr %3, ptr %slot30, align 8
  %slot31 = getelementptr inbounds nuw { ptr, ptr, ptr, ptr, ptr, ptr }, ptr %10, i32 0, i32 3
  store ptr %5, ptr %slot31, align 8
  %11 = alloca { ptr, ptr, ptr, ptr, ptr, ptr }, align 8
  %slot32 = getelementptr inbounds nuw { ptr, ptr, ptr, ptr, ptr, ptr }, ptr %11, i32 0, i32 4
  store ptr %raw_box4, ptr %slot32, align 8
  %slot33 = getelementptr inbounds nuw { ptr, ptr, ptr, ptr, ptr, ptr }, ptr %11, i32 0, i32 3
  store ptr %4, ptr %slot33, align 8
  %12 = alloca { ptr, ptr, ptr, ptr, ptr, ptr }, align 8
  %slot34 = getelementptr inbounds nuw { ptr, ptr, ptr, ptr, ptr, ptr }, ptr %12, i32 0, i32 4
  store ptr %7, ptr %slot34, align 8
  %13 = alloca { ptr, ptr, ptr, ptr, ptr, ptr }, align 8
  %slot35 = getelementptr inbounds nuw { ptr, ptr, ptr, ptr, ptr, ptr }, ptr %13, i32 0, i32 1
  store ptr %1, ptr %slot35, align 8
  %14 = alloca { ptr, ptr, ptr, ptr, ptr, ptr }, align 8
  %field = getelementptr inbounds nuw %amice.alias.st.57, ptr %raw_box7, i32 0, i32 0
  %callg = call ptr @anon.2cf0c1d40cc4e776c7c5e8652d40a35e.58(ptr %0)
  %ld_next = load ptr, ptr %callg, align 8
  %field36 = getelementptr inbounds nuw %amice.alias.st.55, ptr %ld_next, i32 0, i32 0
  %callg37 = call ptr @anon.2cf0c1d40cc4e776c7c5e8652d40a35e.59(ptr %10)
  %ld_next38 = load ptr, ptr %callg37, align 8
  %callg39 = call ptr @anon.2cf0c1d40cc4e776c7c5e8652d40a35e.59(ptr %ld_next38)
  %ld_next40 = load ptr, ptr %callg39, align 8
  %callg41 = call ptr @anon.2cf0c1d40cc4e776c7c5e8652d40a35e.60(ptr %ld_next40)
  %ld_next42 = load ptr, ptr %callg41, align 8
  %field43 = getelementptr inbounds nuw %amice.alias.st.53, ptr %ld_next42, i32 0, i32 0
  %callg44 = call ptr @anon.2cf0c1d40cc4e776c7c5e8652d40a35e.59(ptr %3)
  %ld_next45 = load ptr, ptr %callg44, align 8
  %callg46 = call ptr @anon.2cf0c1d40cc4e776c7c5e8652d40a35e.58(ptr %ld_next45)
  %ld_next47 = load ptr, ptr %callg46, align 8
  %field48 = getelementptr inbounds nuw %amice.alias.st.55, ptr %ld_next47, i32 0, i32 1
  %callg49 = call ptr @anon.2cf0c1d40cc4e776c7c5e8652d40a35e.61(ptr %2)
  %ld_next50 = load ptr, ptr %callg49, align 8
  %callg51 = call ptr @anon.2cf0c1d40cc4e776c7c5e8652d40a35e.61(ptr %ld_next50)
  %ld_next52 = load ptr, ptr %callg51, align 8
  %field53 = getelementptr inbounds nuw %amice.alias.st.54, ptr %ld_next52, i32 0, i32 1
  %callg54 = call ptr @anon.2cf0c1d40cc4e776c7c5e8652d40a35e.60(ptr %3)
  %ld_next55 = load ptr, ptr %callg54, align 8
  %field56 = getelementptr inbounds nuw %amice.alias.st.54, ptr %ld_next55, i32 0, i32 1
  %callg57 = call ptr @anon.2cf0c1d40cc4e776c7c5e8652d40a35e.59(ptr %2)
  %ld_next58 = load ptr, ptr %callg57, align 8
  %field59 = getelementptr inbounds nuw %amice.alias.st.54, ptr %ld_next58, i32 0, i32 1
  %field60 = getelementptr inbounds nuw %amice.alias.st.53, ptr %raw_box, i32 0, i32 0
  %field61 = getelementptr inbounds nuw %amice.alias.st.56, ptr %raw_box6, i32 0, i32 0
  %callg62 = call ptr @anon.2cf0c1d40cc4e776c7c5e8652d40a35e.59(ptr %10)
  %ld_next63 = load ptr, ptr %callg62, align 8
  %callg64 = call ptr @anon.2cf0c1d40cc4e776c7c5e8652d40a35e.59(ptr %ld_next63)
  %ld_next65 = load ptr, ptr %callg64, align 8
  %callg66 = call ptr @anon.2cf0c1d40cc4e776c7c5e8652d40a35e.58(ptr %ld_next65)
  %ld_next67 = load ptr, ptr %callg66, align 8
  %field68 = getelementptr inbounds nuw %amice.alias.st.55, ptr %ld_next67, i32 0, i32 1
  %callg69 = call ptr @anon.2cf0c1d40cc4e776c7c5e8652d40a35e.59(ptr %1)
  %ld_next70 = load ptr, ptr %callg69, align 8
  %field71 = getelementptr inbounds nuw %amice.alias.st.53, ptr %ld_next70, i32 0, i32 0
  %callg72 = call ptr @anon.2cf0c1d40cc4e776c7c5e8652d40a35e.58(ptr %0)
  %ld_next73 = load ptr, ptr %callg72, align 8
  %field74 = getelementptr inbounds nuw %amice.alias.st.55, ptr %ld_next73, i32 0, i32 1
  %callg75 = call ptr @anon.2cf0c1d40cc4e776c7c5e8652d40a35e.59(ptr %10)
  %ld_next76 = load ptr, ptr %callg75, align 8
  %callg77 = call ptr @anon.2cf0c1d40cc4e776c7c5e8652d40a35e.59(ptr %ld_next76)
  %ld_next78 = load ptr, ptr %callg77, align 8
  %callg79 = call ptr @anon.2cf0c1d40cc4e776c7c5e8652d40a35e.60(ptr %ld_next78)
  %ld_next80 = load ptr, ptr %callg79, align 8
  %field81 = getelementptr inbounds nuw %amice.alias.st.53, ptr %ld_next80, i32 0, i32 0
  %callg82 = call ptr @anon.2cf0c1d40cc4e776c7c5e8652d40a35e.59(ptr %3)
  %ld_next83 = load ptr, ptr %callg82, align 8
  %callg84 = call ptr @anon.2cf0c1d40cc4e776c7c5e8652d40a35e.60(ptr %ld_next83)
  %ld_next85 = load ptr, ptr %callg84, align 8
  %field86 = getelementptr inbounds nuw %amice.alias.st.53, ptr %ld_next85, i32 0, i32 0
  %callg87 = call ptr @anon.2cf0c1d40cc4e776c7c5e8652d40a35e.61(ptr %13)
  %ld_next88 = load ptr, ptr %callg87, align 8
  %callg89 = call ptr @anon.2cf0c1d40cc4e776c7c5e8652d40a35e.62(ptr %ld_next88)
  %ld_next90 = load ptr, ptr %callg89, align 8
  %field91 = getelementptr inbounds nuw %amice.alias.st.55, ptr %ld_next90, i32 0, i32 1
  %callg92 = call ptr @anon.2cf0c1d40cc4e776c7c5e8652d40a35e.61(ptr %1)
  %ld_next93 = load ptr, ptr %callg92, align 8
  %field94 = getelementptr inbounds nuw %amice.alias.st.54, ptr %ld_next93, i32 0, i32 0
  %callg95 = call ptr @anon.2cf0c1d40cc4e776c7c5e8652d40a35e.61(ptr %13)
  %ld_next96 = load ptr, ptr %callg95, align 8
  %callg97 = call ptr @anon.2cf0c1d40cc4e776c7c5e8652d40a35e.59(ptr %ld_next96)
  %ld_next98 = load ptr, ptr %callg97, align 8
  %field99 = getelementptr inbounds nuw %amice.alias.st.53, ptr %ld_next98, i32 0, i32 0
  %callg100 = call ptr @anon.2cf0c1d40cc4e776c7c5e8652d40a35e.58(ptr %0)
  %ld_next101 = load ptr, ptr %callg100, align 8
  %field102 = getelementptr inbounds nuw %amice.alias.st.55, ptr %ld_next101, i32 0, i32 1
  %callg103 = call ptr @anon.2cf0c1d40cc4e776c7c5e8652d40a35e.62(ptr %1)
  %ld_next104 = load ptr, ptr %callg103, align 8
  %field105 = getelementptr inbounds nuw %amice.alias.st.55, ptr %ld_next104, i32 0, i32 1
  store i32 %a, ptr %field, align 4
    #dbg_declare(ptr poison, !742, !DIExpression(), !758)
  store i32 %b, ptr %field36, align 4
    #dbg_declare(ptr poison, !743, !DIExpression(), !759)
    #dbg_declare(ptr poison, !744, !DIExpression(), !760)
    #dbg_declare(ptr poison, !746, !DIExpression(), !761)
    #dbg_declare(ptr poison, !748, !DIExpression(), !762)
  store i32 %a, ptr %field43, align 4, !dbg !763
  store i32 %b, ptr %field48, align 4, !dbg !764
; call <core::ops::range::Range<i32> as core::iter::traits::collect::IntoIterator>::into_iter
  %15 = call { i32, i32 } @_RNvXNtNtNtCsiJgtBcGlDou_4core4iter6traits7collectINtNtNtB8_3ops5range5RangelENtB2_12IntoIterator9into_iterCs9dAga0YNYgM_17alias_access_test(i32 0, i32 3) #14, !dbg !765
  %_5.0 = extractvalue { i32, i32 } %15, 0, !dbg !765
  %_5.1 = extractvalue { i32, i32 } %15, 1, !dbg !765
  store i32 %_5.0, ptr %field53, align 4, !dbg !765
  %16 = getelementptr inbounds i8, ptr %field56, i64 4, !dbg !765
  store i32 %_5.1, ptr %16, align 4, !dbg !765
  br label %bb2, !dbg !766

bb2:                                              ; preds = %bb8, %start
; call <core::ops::range::Range<i32> as core::iter::traits::iterator::Iterator>::next
  %17 = call { i32, i32 } @_RNvXs4_NtNtCsiJgtBcGlDou_4core4iter5rangeINtNtNtB9_3ops5range5RangelENtNtNtB7_6traits8iterator8Iterator4nextCs9dAga0YNYgM_17alias_access_test(ptr align 4 %field59) #14, !dbg !762
  %_8.0 = extractvalue { i32, i32 } %17, 0, !dbg !762
  %_8.1 = extractvalue { i32, i32 } %17, 1, !dbg !762
  %_10 = zext i32 %_8.0 to i64, !dbg !762
  %18 = trunc nuw i64 %_10 to i1, !dbg !762
  br i1 %18, label %bb5, label %bb6, !dbg !762

bb5:                                              ; preds = %bb2
  %temp = load i32, ptr %field60, align 4, !dbg !767
  store i32 %temp, ptr %field61, align 4, !dbg !767
    #dbg_declare(ptr poison, !754, !DIExpression(), !768)
  %_12 = load i32, ptr %field68, align 4, !dbg !769
  store i32 %_12, ptr %field71, align 4, !dbg !770
  store i32 %temp, ptr %field74, align 4, !dbg !771
  %19 = load i32, ptr %field81, align 4, !dbg !772
  %20 = call { i32, i1 } @llvm.sadd.with.overflow.i32(i32 %19, i32 1), !dbg !772
  %_13.0 = extractvalue { i32, i1 } %20, 0, !dbg !772
  %_13.1 = extractvalue { i32, i1 } %20, 1, !dbg !772
  br i1 %_13.1, label %panic2, label %bb7, !dbg !772

bb6:                                              ; preds = %bb2
  %_16 = load i32, ptr %field86, align 4, !dbg !773
  %21 = call { i32, i1 } @llvm.smul.with.overflow.i32(i32 %_16, i32 10), !dbg !773
  %_17.0 = extractvalue { i32, i1 } %21, 0, !dbg !773
  %_17.1 = extractvalue { i32, i1 } %21, 1, !dbg !773
  br i1 %_17.1, label %panic, label %bb9, !dbg !773

bb9:                                              ; preds = %bb6
  %_18 = load i32, ptr %field91, align 4, !dbg !774
  %22 = call { i32, i1 } @llvm.sadd.with.overflow.i32(i32 %_17.0, i32 %_18), !dbg !773
  %_19.0 = extractvalue { i32, i1 } %22, 0, !dbg !773
  %_19.1 = extractvalue { i32, i1 } %22, 1, !dbg !773
  br i1 %_19.1, label %panic1, label %bb10, !dbg !773

panic:                                            ; preds = %bb6
; call core::panicking::panic_const::panic_const_mul_overflow
  call void @_RNvNtNtCsiJgtBcGlDou_4core9panicking11panic_const24panic_const_mul_overflow(ptr align 8 @alloc_410b057ca8e8378645a8f38fa8a3c6e4) #13, !dbg !773
  unreachable, !dbg !773

bb10:                                             ; preds = %bb9
  store i32 %_19.0, ptr %field94, align 4, !dbg !773
    #dbg_declare(ptr poison, !756, !DIExpression(), !775)
; call alias_access_test::set_sink
  call void @_RNvCs9dAga0YNYgM_17alias_access_test8set_sink(i32 %_19.0) #15, !dbg !776
  ret i32 %_19.0, !dbg !777

panic1:                                           ; preds = %bb9
; call core::panicking::panic_const::panic_const_add_overflow
  call void @_RNvNtNtCsiJgtBcGlDou_4core9panicking11panic_const24panic_const_add_overflow(ptr align 8 @alloc_410b057ca8e8378645a8f38fa8a3c6e4) #13, !dbg !773
  unreachable, !dbg !773

bb7:                                              ; preds = %bb5
  store i32 %_13.0, ptr %field99, align 4, !dbg !772
  %23 = load i32, ptr %field102, align 4, !dbg !778
  %24 = call { i32, i1 } @llvm.ssub.with.overflow.i32(i32 %23, i32 1), !dbg !778
  %_14.0 = extractvalue { i32, i1 } %24, 0, !dbg !778
  %_14.1 = extractvalue { i32, i1 } %24, 1, !dbg !778
  br i1 %_14.1, label %panic3, label %bb8, !dbg !778

panic2:                                           ; preds = %bb5
; call core::panicking::panic_const::panic_const_add_overflow
  call void @_RNvNtNtCsiJgtBcGlDou_4core9panicking11panic_const24panic_const_add_overflow(ptr align 8 @alloc_ce71997aa69210f35e2cb46d4a29dc59) #13, !dbg !772
  unreachable, !dbg !772

bb8:                                              ; preds = %bb7
  store i32 %_14.0, ptr %field105, align 4, !dbg !778
  br label %bb2, !dbg !766

panic3:                                           ; preds = %bb7
; call core::panicking::panic_const::panic_const_sub_overflow
  call void @_RNvNtNtCsiJgtBcGlDou_4core9panicking11panic_const24panic_const_sub_overflow(ptr align 8 @alloc_a6e438387bf03957b0c187587e1e0412) #13, !dbg !778
  unreachable, !dbg !778

bb4:                                              ; No predecessors!
  unreachable, !dbg !762
}

; alias_access_test::test_nested_locals
; Function Attrs: noinline nonlazybind uwtable
define internal i32 @_RNvCs9dAga0YNYgM_17alias_access_test18test_nested_locals(i32 %input) unnamed_addr #2 !dbg !779 {
start:
  %raw_box = alloca %amice.alias.st.58, align 8
  %raw_box8 = alloca %amice.alias.st.59, align 8
  %raw_box9 = alloca %amice.alias.st.60, align 8
  %raw_box10 = alloca %amice.alias.st.61, align 8
  %0 = alloca { ptr, ptr, ptr, ptr, ptr, ptr }, align 8
  %slot = getelementptr inbounds nuw { ptr, ptr, ptr, ptr, ptr, ptr }, ptr %0, i32 0, i32 3
  store ptr %raw_box9, ptr %slot, align 8
  %slot11 = getelementptr inbounds nuw { ptr, ptr, ptr, ptr, ptr, ptr }, ptr %0, i32 0, i32 1
  store ptr %raw_box8, ptr %slot11, align 8
  %slot12 = getelementptr inbounds nuw { ptr, ptr, ptr, ptr, ptr, ptr }, ptr %0, i32 0, i32 4
  store ptr %raw_box9, ptr %slot12, align 8
  %slot13 = getelementptr inbounds nuw { ptr, ptr, ptr, ptr, ptr, ptr }, ptr %0, i32 0, i32 2
  store ptr %raw_box8, ptr %slot13, align 8
  %slot14 = getelementptr inbounds nuw { ptr, ptr, ptr, ptr, ptr, ptr }, ptr %0, i32 0, i32 5
  store ptr %raw_box9, ptr %slot14, align 8
  %1 = alloca { ptr, ptr, ptr, ptr, ptr, ptr }, align 8
  %2 = alloca { ptr, ptr, ptr, ptr, ptr, ptr }, align 8
  %slot15 = getelementptr inbounds nuw { ptr, ptr, ptr, ptr, ptr, ptr }, ptr %2, i32 0, i32 2
  store ptr %raw_box10, ptr %slot15, align 8
  %slot16 = getelementptr inbounds nuw { ptr, ptr, ptr, ptr, ptr, ptr }, ptr %2, i32 0, i32 0
  store ptr %raw_box8, ptr %slot16, align 8
  %3 = alloca { ptr, ptr, ptr, ptr, ptr, ptr }, align 8
  %slot17 = getelementptr inbounds nuw { ptr, ptr, ptr, ptr, ptr, ptr }, ptr %3, i32 0, i32 5
  store ptr %raw_box, ptr %slot17, align 8
  %slot18 = getelementptr inbounds nuw { ptr, ptr, ptr, ptr, ptr, ptr }, ptr %3, i32 0, i32 3
  store ptr %raw_box, ptr %slot18, align 8
  %4 = alloca { ptr, ptr, ptr, ptr, ptr, ptr }, align 8
  %slot19 = getelementptr inbounds nuw { ptr, ptr, ptr, ptr, ptr, ptr }, ptr %4, i32 0, i32 0
  store ptr %raw_box8, ptr %slot19, align 8
  %slot20 = getelementptr inbounds nuw { ptr, ptr, ptr, ptr, ptr, ptr }, ptr %4, i32 0, i32 3
  store ptr %0, ptr %slot20, align 8
  %slot21 = getelementptr inbounds nuw { ptr, ptr, ptr, ptr, ptr, ptr }, ptr %4, i32 0, i32 5
  store ptr %3, ptr %slot21, align 8
  %slot22 = getelementptr inbounds nuw { ptr, ptr, ptr, ptr, ptr, ptr }, ptr %4, i32 0, i32 1
  store ptr %raw_box8, ptr %slot22, align 8
  %slot23 = getelementptr inbounds nuw { ptr, ptr, ptr, ptr, ptr, ptr }, ptr %4, i32 0, i32 2
  store ptr %1, ptr %slot23, align 8
  %5 = alloca { ptr, ptr, ptr, ptr, ptr, ptr }, align 8
  %slot24 = getelementptr inbounds nuw { ptr, ptr, ptr, ptr, ptr, ptr }, ptr %5, i32 0, i32 3
  store ptr %2, ptr %slot24, align 8
  %6 = alloca { ptr, ptr, ptr, ptr, ptr, ptr }, align 8
  %slot25 = getelementptr inbounds nuw { ptr, ptr, ptr, ptr, ptr, ptr }, ptr %6, i32 0, i32 0
  store ptr %raw_box, ptr %slot25, align 8
  %slot26 = getelementptr inbounds nuw { ptr, ptr, ptr, ptr, ptr, ptr }, ptr %6, i32 0, i32 4
  store ptr %raw_box10, ptr %slot26, align 8
  %slot27 = getelementptr inbounds nuw { ptr, ptr, ptr, ptr, ptr, ptr }, ptr %6, i32 0, i32 5
  store ptr %2, ptr %slot27, align 8
  %slot28 = getelementptr inbounds nuw { ptr, ptr, ptr, ptr, ptr, ptr }, ptr %6, i32 0, i32 2
  store ptr %3, ptr %slot28, align 8
  %7 = alloca { ptr, ptr, ptr, ptr, ptr, ptr }, align 8
  %8 = alloca { ptr, ptr, ptr, ptr, ptr, ptr }, align 8
  %slot29 = getelementptr inbounds nuw { ptr, ptr, ptr, ptr, ptr, ptr }, ptr %8, i32 0, i32 2
  store ptr %4, ptr %slot29, align 8
  %9 = alloca { ptr, ptr, ptr, ptr, ptr, ptr }, align 8
  %slot30 = getelementptr inbounds nuw { ptr, ptr, ptr, ptr, ptr, ptr }, ptr %9, i32 0, i32 0
  store ptr %raw_box10, ptr %slot30, align 8
  %10 = alloca { ptr, ptr, ptr, ptr, ptr, ptr }, align 8
  %slot31 = getelementptr inbounds nuw { ptr, ptr, ptr, ptr, ptr, ptr }, ptr %10, i32 0, i32 1
  store ptr %8, ptr %slot31, align 8
  %slot32 = getelementptr inbounds nuw { ptr, ptr, ptr, ptr, ptr, ptr }, ptr %10, i32 0, i32 4
  store ptr %1, ptr %slot32, align 8
  %slot33 = getelementptr inbounds nuw { ptr, ptr, ptr, ptr, ptr, ptr }, ptr %10, i32 0, i32 5
  store ptr %raw_box9, ptr %slot33, align 8
  %slot34 = getelementptr inbounds nuw { ptr, ptr, ptr, ptr, ptr, ptr }, ptr %10, i32 0, i32 3
  store ptr %9, ptr %slot34, align 8
  %slot35 = getelementptr inbounds nuw { ptr, ptr, ptr, ptr, ptr, ptr }, ptr %10, i32 0, i32 0
  store ptr %raw_box10, ptr %slot35, align 8
  %11 = alloca { ptr, ptr, ptr, ptr, ptr, ptr }, align 8
  %slot36 = getelementptr inbounds nuw { ptr, ptr, ptr, ptr, ptr, ptr }, ptr %11, i32 0, i32 1
  store ptr %raw_box9, ptr %slot36, align 8
  %slot37 = getelementptr inbounds nuw { ptr, ptr, ptr, ptr, ptr, ptr }, ptr %11, i32 0, i32 2
  store ptr %8, ptr %slot37, align 8
  %slot38 = getelementptr inbounds nuw { ptr, ptr, ptr, ptr, ptr, ptr }, ptr %11, i32 0, i32 4
  store ptr %4, ptr %slot38, align 8
  %callg = call ptr @anon.2cf0c1d40cc4e776c7c5e8652d40a35e.63(ptr %11)
  %ld_next = load ptr, ptr %callg, align 8
  %callg39 = call ptr @anon.2cf0c1d40cc4e776c7c5e8652d40a35e.63(ptr %ld_next)
  %ld_next40 = load ptr, ptr %callg39, align 8
  %callg41 = call ptr @anon.2cf0c1d40cc4e776c7c5e8652d40a35e.64(ptr %ld_next40)
  %ld_next42 = load ptr, ptr %callg41, align 8
  %callg43 = call ptr @anon.2cf0c1d40cc4e776c7c5e8652d40a35e.65(ptr %ld_next42)
  %ld_next44 = load ptr, ptr %callg43, align 8
  %field = getelementptr inbounds nuw %amice.alias.st.60, ptr %ld_next44, i32 0, i32 2
  %callg45 = call ptr @anon.2cf0c1d40cc4e776c7c5e8652d40a35e.63(ptr %2)
  %ld_next46 = load ptr, ptr %callg45, align 8
  %field47 = getelementptr inbounds nuw %amice.alias.st.61, ptr %ld_next46, i32 0, i32 1
  %callg48 = call ptr @anon.2cf0c1d40cc4e776c7c5e8652d40a35e.64(ptr %4)
  %ld_next49 = load ptr, ptr %callg48, align 8
  %callg50 = call ptr @anon.2cf0c1d40cc4e776c7c5e8652d40a35e.64(ptr %ld_next49)
  %ld_next51 = load ptr, ptr %callg50, align 8
  %field52 = getelementptr inbounds nuw %amice.alias.st.60, ptr %ld_next51, i32 0, i32 1
  %callg53 = call ptr @anon.2cf0c1d40cc4e776c7c5e8652d40a35e.63(ptr %2)
  %ld_next54 = load ptr, ptr %callg53, align 8
  %field55 = getelementptr inbounds nuw %amice.alias.st.61, ptr %ld_next54, i32 0, i32 0
  %callg56 = call ptr @anon.2cf0c1d40cc4e776c7c5e8652d40a35e.63(ptr %8)
  %ld_next57 = load ptr, ptr %callg56, align 8
  %callg58 = call ptr @anon.2cf0c1d40cc4e776c7c5e8652d40a35e.66(ptr %ld_next57)
  %ld_next59 = load ptr, ptr %callg58, align 8
  %callg60 = call ptr @anon.2cf0c1d40cc4e776c7c5e8652d40a35e.64(ptr %ld_next59)
  %ld_next61 = load ptr, ptr %callg60, align 8
  %field62 = getelementptr inbounds nuw %amice.alias.st.58, ptr %ld_next61, i32 0, i32 1
  %callg63 = call ptr @anon.2cf0c1d40cc4e776c7c5e8652d40a35e.67(ptr %10)
  %ld_next64 = load ptr, ptr %callg63, align 8
  %callg65 = call ptr @anon.2cf0c1d40cc4e776c7c5e8652d40a35e.63(ptr %ld_next64)
  %ld_next66 = load ptr, ptr %callg65, align 8
  %callg67 = call ptr @anon.2cf0c1d40cc4e776c7c5e8652d40a35e.64(ptr %ld_next66)
  %ld_next68 = load ptr, ptr %callg67, align 8
  %callg69 = call ptr @anon.2cf0c1d40cc4e776c7c5e8652d40a35e.67(ptr %ld_next68)
  %ld_next70 = load ptr, ptr %callg69, align 8
  %field71 = getelementptr inbounds nuw %amice.alias.st.59, ptr %ld_next70, i32 0, i32 1
  %callg72 = call ptr @anon.2cf0c1d40cc4e776c7c5e8652d40a35e.65(ptr %11)
  %ld_next73 = load ptr, ptr %callg72, align 8
  %callg74 = call ptr @anon.2cf0c1d40cc4e776c7c5e8652d40a35e.66(ptr %ld_next73)
  %ld_next75 = load ptr, ptr %callg74, align 8
  %callg76 = call ptr @anon.2cf0c1d40cc4e776c7c5e8652d40a35e.66(ptr %ld_next75)
  %ld_next77 = load ptr, ptr %callg76, align 8
  %field78 = getelementptr inbounds nuw %amice.alias.st.58, ptr %ld_next77, i32 0, i32 0
  %field79 = getelementptr inbounds nuw %amice.alias.st.60, ptr %raw_box9, i32 0, i32 0
  %callg80 = call ptr @anon.2cf0c1d40cc4e776c7c5e8652d40a35e.64(ptr %5)
  %ld_next81 = load ptr, ptr %callg80, align 8
  %callg82 = call ptr @anon.2cf0c1d40cc4e776c7c5e8652d40a35e.68(ptr %ld_next81)
  %ld_next83 = load ptr, ptr %callg82, align 8
  %field84 = getelementptr inbounds nuw %amice.alias.st.59, ptr %ld_next83, i32 0, i32 0
  store i32 %input, ptr %field, align 4
    #dbg_declare(ptr poison, !781, !DIExpression(), !800)
    #dbg_declare(ptr poison, !782, !DIExpression(), !801)
  %12 = call { i32, i1 } @llvm.smul.with.overflow.i32(i32 %input, i32 2), !dbg !802
  %_3.0 = extractvalue { i32, i1 } %12, 0, !dbg !802
  %_3.1 = extractvalue { i32, i1 } %12, 1, !dbg !802
  br i1 %_3.1, label %panic, label %bb1, !dbg !802

bb1:                                              ; preds = %start
  store i32 %_3.0, ptr %field47, align 4, !dbg !802
    #dbg_declare(ptr poison, !784, !DIExpression(), !803)
  %13 = call { i32, i1 } @llvm.sadd.with.overflow.i32(i32 %input, i32 5), !dbg !804
  %_5.0 = extractvalue { i32, i1 } %13, 0, !dbg !804
  %_5.1 = extractvalue { i32, i1 } %13, 1, !dbg !804
  br i1 %_5.1, label %panic1, label %bb2, !dbg !804

panic:                                            ; preds = %start
; call core::panicking::panic_const::panic_const_mul_overflow
  call void @_RNvNtNtCsiJgtBcGlDou_4core9panicking11panic_const24panic_const_mul_overflow(ptr align 8 @alloc_c05596c09c6ffeb15c6ca1faa51e5f16) #13, !dbg !802
  unreachable, !dbg !802

bb2:                                              ; preds = %bb1
  store i32 %_5.0, ptr %field52, align 4, !dbg !804
    #dbg_declare(ptr poison, !786, !DIExpression(), !805)
  %14 = call { i32, i1 } @llvm.ssub.with.overflow.i32(i32 %_3.0, i32 3), !dbg !806
  %_7.0 = extractvalue { i32, i1 } %14, 0, !dbg !806
  %_7.1 = extractvalue { i32, i1 } %14, 1, !dbg !806
  br i1 %_7.1, label %panic2, label %bb3, !dbg !806

panic1:                                           ; preds = %bb1
; call core::panicking::panic_const::panic_const_add_overflow
  call void @_RNvNtNtCsiJgtBcGlDou_4core9panicking11panic_const24panic_const_add_overflow(ptr align 8 @alloc_7c2f546420f6bd6676bb60bfbb706176) #13, !dbg !804
  unreachable, !dbg !804

bb3:                                              ; preds = %bb2
  store i32 %_7.0, ptr %field55, align 4, !dbg !806
    #dbg_declare(ptr poison, !788, !DIExpression(), !807)
  %15 = call { i32, i1 } @llvm.smul.with.overflow.i32(i32 %input, i32 2), !dbg !808
  %_9.0 = extractvalue { i32, i1 } %15, 0, !dbg !808
  %_9.1 = extractvalue { i32, i1 } %15, 1, !dbg !808
  br i1 %_9.1, label %panic3, label %bb4, !dbg !808

panic2:                                           ; preds = %bb2
; call core::panicking::panic_const::panic_const_sub_overflow
  call void @_RNvNtNtCsiJgtBcGlDou_4core9panicking11panic_const24panic_const_sub_overflow(ptr align 8 @alloc_1dc1872e692806c565f47e5d2e98ec11) #13, !dbg !806
  unreachable, !dbg !806

bb4:                                              ; preds = %bb3
  store i32 %_9.0, ptr %field62, align 4, !dbg !808
    #dbg_declare(ptr poison, !790, !DIExpression(), !809)
  %_13 = icmp eq i32 %_3.0, -2147483648, !dbg !810
  %_14 = and i1 false, %_13, !dbg !810
  br i1 %_14, label %panic4, label %bb6, !dbg !810

panic3:                                           ; preds = %bb3
; call core::panicking::panic_const::panic_const_mul_overflow
  call void @_RNvNtNtCsiJgtBcGlDou_4core9panicking11panic_const24panic_const_mul_overflow(ptr align 8 @alloc_464577722e259a03f0463cd74ca2b4f4) #13, !dbg !808
  unreachable, !dbg !808

bb6:                                              ; preds = %bb4
  %inner2_b = sdiv i32 %_3.0, 2, !dbg !810
  store i32 %inner2_b, ptr %field71, align 4, !dbg !810
    #dbg_declare(ptr poison, !792, !DIExpression(), !811)
  %16 = call { i32, i1 } @llvm.sadd.with.overflow.i32(i32 %_5.0, i32 %_7.0), !dbg !812
  %_16.0 = extractvalue { i32, i1 } %16, 0, !dbg !812
  %_16.1 = extractvalue { i32, i1 } %16, 1, !dbg !812
  br i1 %_16.1, label %panic5, label %bb7, !dbg !812

panic4:                                           ; preds = %bb4
; call core::panicking::panic_const::panic_const_div_overflow
  call void @_RNvNtNtCsiJgtBcGlDou_4core9panicking11panic_const24panic_const_div_overflow(ptr align 8 @alloc_6446ffd3284635dfeadc7d74216884a3) #13, !dbg !810
  unreachable, !dbg !810

bb7:                                              ; preds = %bb6
  store i32 %_16.0, ptr %field78, align 4, !dbg !812
    #dbg_declare(ptr poison, !794, !DIExpression(), !813)
  %17 = call { i32, i1 } @llvm.ssub.with.overflow.i32(i32 %_9.0, i32 %inner2_b), !dbg !814
  %_18.0 = extractvalue { i32, i1 } %17, 0, !dbg !814
  %_18.1 = extractvalue { i32, i1 } %17, 1, !dbg !814
  br i1 %_18.1, label %panic6, label %bb8, !dbg !814

panic5:                                           ; preds = %bb6
; call core::panicking::panic_const::panic_const_add_overflow
  call void @_RNvNtNtCsiJgtBcGlDou_4core9panicking11panic_const24panic_const_add_overflow(ptr align 8 @alloc_ac8652ea5b018139c2b014cd246996c7) #13, !dbg !812
  unreachable, !dbg !812

bb8:                                              ; preds = %bb7
  store i32 %_18.0, ptr %field79, align 4, !dbg !814
    #dbg_declare(ptr poison, !796, !DIExpression(), !815)
  %18 = call { i32, i1 } @llvm.smul.with.overflow.i32(i32 %_16.0, i32 %_18.0), !dbg !816
  %_19.0 = extractvalue { i32, i1 } %18, 0, !dbg !816
  %_19.1 = extractvalue { i32, i1 } %18, 1, !dbg !816
  br i1 %_19.1, label %panic7, label %bb9, !dbg !816

panic6:                                           ; preds = %bb7
; call core::panicking::panic_const::panic_const_sub_overflow
  call void @_RNvNtNtCsiJgtBcGlDou_4core9panicking11panic_const24panic_const_sub_overflow(ptr align 8 @alloc_a01da3f3762fb285a3af45fe9f3ba7fd) #13, !dbg !814
  unreachable, !dbg !814

bb9:                                              ; preds = %bb8
  store i32 %_19.0, ptr %field84, align 4, !dbg !816
    #dbg_declare(ptr poison, !798, !DIExpression(), !817)
; call alias_access_test::set_sink
  call void @_RNvCs9dAga0YNYgM_17alias_access_test8set_sink(i32 %_19.0) #15, !dbg !818
  ret i32 %_19.0, !dbg !819

panic7:                                           ; preds = %bb8
; call core::panicking::panic_const::panic_const_mul_overflow
  call void @_RNvNtNtCsiJgtBcGlDou_4core9panicking11panic_const24panic_const_mul_overflow(ptr align 8 @alloc_a9b2c933e9e4c008d653fa5046d11950) #13, !dbg !816
  unreachable, !dbg !816
}

; alias_access_test::test_simple_locals
; Function Attrs: noinline nonlazybind uwtable
define internal i32 @_RNvCs9dAga0YNYgM_17alias_access_test18test_simple_locals(i32 %a, i32 %b) unnamed_addr #2 !dbg !820 {
start:
  %raw_box = alloca %amice.alias.st.62, align 8
  %raw_box4 = alloca %amice.alias.st.63, align 8
  %raw_box5 = alloca %amice.alias.st.64, align 8
  %raw_box6 = alloca %amice.alias.st.65, align 8
  %0 = alloca { ptr, ptr, ptr, ptr, ptr, ptr }, align 8
  %slot = getelementptr inbounds nuw { ptr, ptr, ptr, ptr, ptr, ptr }, ptr %0, i32 0, i32 2
  store ptr %raw_box6, ptr %slot, align 8
  %slot7 = getelementptr inbounds nuw { ptr, ptr, ptr, ptr, ptr, ptr }, ptr %0, i32 0, i32 3
  store ptr %raw_box6, ptr %slot7, align 8
  %slot8 = getelementptr inbounds nuw { ptr, ptr, ptr, ptr, ptr, ptr }, ptr %0, i32 0, i32 0
  store ptr %raw_box6, ptr %slot8, align 8
  %slot9 = getelementptr inbounds nuw { ptr, ptr, ptr, ptr, ptr, ptr }, ptr %0, i32 0, i32 1
  store ptr %raw_box5, ptr %slot9, align 8
  %1 = alloca { ptr, ptr, ptr, ptr, ptr, ptr }, align 8
  %slot10 = getelementptr inbounds nuw { ptr, ptr, ptr, ptr, ptr, ptr }, ptr %1, i32 0, i32 0
  store ptr %raw_box4, ptr %slot10, align 8
  %slot11 = getelementptr inbounds nuw { ptr, ptr, ptr, ptr, ptr, ptr }, ptr %1, i32 0, i32 4
  store ptr %raw_box, ptr %slot11, align 8
  %slot12 = getelementptr inbounds nuw { ptr, ptr, ptr, ptr, ptr, ptr }, ptr %1, i32 0, i32 5
  store ptr %raw_box5, ptr %slot12, align 8
  %slot13 = getelementptr inbounds nuw { ptr, ptr, ptr, ptr, ptr, ptr }, ptr %1, i32 0, i32 3
  store ptr %raw_box5, ptr %slot13, align 8
  %slot14 = getelementptr inbounds nuw { ptr, ptr, ptr, ptr, ptr, ptr }, ptr %1, i32 0, i32 2
  store ptr %raw_box, ptr %slot14, align 8
  %2 = alloca { ptr, ptr, ptr, ptr, ptr, ptr }, align 8
  %slot15 = getelementptr inbounds nuw { ptr, ptr, ptr, ptr, ptr, ptr }, ptr %2, i32 0, i32 4
  store ptr %0, ptr %slot15, align 8
  %slot16 = getelementptr inbounds nuw { ptr, ptr, ptr, ptr, ptr, ptr }, ptr %2, i32 0, i32 1
  store ptr %raw_box, ptr %slot16, align 8
  %3 = alloca { ptr, ptr, ptr, ptr, ptr, ptr }, align 8
  %slot17 = getelementptr inbounds nuw { ptr, ptr, ptr, ptr, ptr, ptr }, ptr %3, i32 0, i32 2
  store ptr %raw_box4, ptr %slot17, align 8
  %slot18 = getelementptr inbounds nuw { ptr, ptr, ptr, ptr, ptr, ptr }, ptr %3, i32 0, i32 3
  store ptr %1, ptr %slot18, align 8
  %slot19 = getelementptr inbounds nuw { ptr, ptr, ptr, ptr, ptr, ptr }, ptr %3, i32 0, i32 5
  store ptr %raw_box5, ptr %slot19, align 8
  %4 = alloca { ptr, ptr, ptr, ptr, ptr, ptr }, align 8
  %5 = alloca { ptr, ptr, ptr, ptr, ptr, ptr }, align 8
  %slot20 = getelementptr inbounds nuw { ptr, ptr, ptr, ptr, ptr, ptr }, ptr %5, i32 0, i32 2
  store ptr %raw_box, ptr %slot20, align 8
  %slot21 = getelementptr inbounds nuw { ptr, ptr, ptr, ptr, ptr, ptr }, ptr %5, i32 0, i32 0
  store ptr %2, ptr %slot21, align 8
  %slot22 = getelementptr inbounds nuw { ptr, ptr, ptr, ptr, ptr, ptr }, ptr %5, i32 0, i32 1
  store ptr %3, ptr %slot22, align 8
  %slot23 = getelementptr inbounds nuw { ptr, ptr, ptr, ptr, ptr, ptr }, ptr %5, i32 0, i32 5
  store ptr %raw_box, ptr %slot23, align 8
  %6 = alloca { ptr, ptr, ptr, ptr, ptr, ptr }, align 8
  %slot24 = getelementptr inbounds nuw { ptr, ptr, ptr, ptr, ptr, ptr }, ptr %6, i32 0, i32 3
  store ptr %3, ptr %slot24, align 8
  %slot25 = getelementptr inbounds nuw { ptr, ptr, ptr, ptr, ptr, ptr }, ptr %6, i32 0, i32 0
  store ptr %raw_box6, ptr %slot25, align 8
  %slot26 = getelementptr inbounds nuw { ptr, ptr, ptr, ptr, ptr, ptr }, ptr %6, i32 0, i32 4
  store ptr %raw_box5, ptr %slot26, align 8
  %7 = alloca { ptr, ptr, ptr, ptr, ptr, ptr }, align 8
  %8 = alloca { ptr, ptr, ptr, ptr, ptr, ptr }, align 8
  %9 = alloca { ptr, ptr, ptr, ptr, ptr, ptr }, align 8
  %slot27 = getelementptr inbounds nuw { ptr, ptr, ptr, ptr, ptr, ptr }, ptr %9, i32 0, i32 2
  store ptr %2, ptr %slot27, align 8
  %10 = alloca { ptr, ptr, ptr, ptr, ptr, ptr }, align 8
  %slot28 = getelementptr inbounds nuw { ptr, ptr, ptr, ptr, ptr, ptr }, ptr %10, i32 0, i32 1
  store ptr %raw_box6, ptr %slot28, align 8
  %slot29 = getelementptr inbounds nuw { ptr, ptr, ptr, ptr, ptr, ptr }, ptr %10, i32 0, i32 5
  store ptr %7, ptr %slot29, align 8
  %slot30 = getelementptr inbounds nuw { ptr, ptr, ptr, ptr, ptr, ptr }, ptr %10, i32 0, i32 2
  store ptr %4, ptr %slot30, align 8
  %slot31 = getelementptr inbounds nuw { ptr, ptr, ptr, ptr, ptr, ptr }, ptr %10, i32 0, i32 3
  store ptr %raw_box5, ptr %slot31, align 8
  %slot32 = getelementptr inbounds nuw { ptr, ptr, ptr, ptr, ptr, ptr }, ptr %10, i32 0, i32 4
  store ptr %9, ptr %slot32, align 8
  %11 = alloca { ptr, ptr, ptr, ptr, ptr, ptr }, align 8
  %slot33 = getelementptr inbounds nuw { ptr, ptr, ptr, ptr, ptr, ptr }, ptr %11, i32 0, i32 5
  store ptr %3, ptr %slot33, align 8
  %slot34 = getelementptr inbounds nuw { ptr, ptr, ptr, ptr, ptr, ptr }, ptr %11, i32 0, i32 2
  store ptr %7, ptr %slot34, align 8
  %slot35 = getelementptr inbounds nuw { ptr, ptr, ptr, ptr, ptr, ptr }, ptr %11, i32 0, i32 3
  store ptr %4, ptr %slot35, align 8
  %slot36 = getelementptr inbounds nuw { ptr, ptr, ptr, ptr, ptr, ptr }, ptr %11, i32 0, i32 1
  store ptr %raw_box, ptr %slot36, align 8
  %callg = call ptr @anon.2cf0c1d40cc4e776c7c5e8652d40a35e.69(ptr %11)
  %ld_next = load ptr, ptr %callg, align 8
  %callg37 = call ptr @anon.2cf0c1d40cc4e776c7c5e8652d40a35e.70(ptr %ld_next)
  %ld_next38 = load ptr, ptr %callg37, align 8
  %callg39 = call ptr @anon.2cf0c1d40cc4e776c7c5e8652d40a35e.71(ptr %ld_next38)
  %ld_next40 = load ptr, ptr %callg39, align 8
  %field = getelementptr inbounds nuw %amice.alias.st.62, ptr %ld_next40, i32 0, i32 0
  %callg41 = call ptr @anon.2cf0c1d40cc4e776c7c5e8652d40a35e.71(ptr %6)
  %ld_next42 = load ptr, ptr %callg41, align 8
  %field43 = getelementptr inbounds nuw %amice.alias.st.64, ptr %ld_next42, i32 0, i32 1
  %callg44 = call ptr @anon.2cf0c1d40cc4e776c7c5e8652d40a35e.70(ptr %3)
  %ld_next45 = load ptr, ptr %callg44, align 8
  %callg46 = call ptr @anon.2cf0c1d40cc4e776c7c5e8652d40a35e.72(ptr %ld_next45)
  %ld_next47 = load ptr, ptr %callg46, align 8
  %field48 = getelementptr inbounds nuw %amice.alias.st.63, ptr %ld_next47, i32 0, i32 1
  %callg49 = call ptr @anon.2cf0c1d40cc4e776c7c5e8652d40a35e.71(ptr %10)
  %ld_next50 = load ptr, ptr %callg49, align 8
  %callg51 = call ptr @anon.2cf0c1d40cc4e776c7c5e8652d40a35e.73(ptr %ld_next50)
  %ld_next52 = load ptr, ptr %callg51, align 8
  %callg53 = call ptr @anon.2cf0c1d40cc4e776c7c5e8652d40a35e.71(ptr %ld_next52)
  %ld_next54 = load ptr, ptr %callg53, align 8
  %callg55 = call ptr @anon.2cf0c1d40cc4e776c7c5e8652d40a35e.72(ptr %ld_next54)
  %ld_next56 = load ptr, ptr %callg55, align 8
  %field57 = getelementptr inbounds nuw %amice.alias.st.65, ptr %ld_next56, i32 0, i32 0
  %callg58 = call ptr @anon.2cf0c1d40cc4e776c7c5e8652d40a35e.74(ptr %5)
  %ld_next59 = load ptr, ptr %callg58, align 8
  %callg60 = call ptr @anon.2cf0c1d40cc4e776c7c5e8652d40a35e.73(ptr %ld_next59)
  %ld_next61 = load ptr, ptr %callg60, align 8
  %field62 = getelementptr inbounds nuw %amice.alias.st.63, ptr %ld_next61, i32 0, i32 0
  %callg63 = call ptr @anon.2cf0c1d40cc4e776c7c5e8652d40a35e.73(ptr %9)
  %ld_next64 = load ptr, ptr %callg63, align 8
  %callg65 = call ptr @anon.2cf0c1d40cc4e776c7c5e8652d40a35e.71(ptr %ld_next64)
  %ld_next66 = load ptr, ptr %callg65, align 8
  %callg67 = call ptr @anon.2cf0c1d40cc4e776c7c5e8652d40a35e.74(ptr %ld_next66)
  %ld_next68 = load ptr, ptr %callg67, align 8
  %field69 = getelementptr inbounds nuw %amice.alias.st.64, ptr %ld_next68, i32 0, i32 0
  store i32 %a, ptr %field, align 4
    #dbg_declare(ptr poison, !822, !DIExpression(), !832)
  store i32 %b, ptr %field43, align 4
    #dbg_declare(ptr poison, !823, !DIExpression(), !833)
  %12 = call { i32, i1 } @llvm.sadd.with.overflow.i32(i32 %a, i32 10), !dbg !834
  %_4.0 = extractvalue { i32, i1 } %12, 0, !dbg !834
  %_4.1 = extractvalue { i32, i1 } %12, 1, !dbg !834
  br i1 %_4.1, label %panic, label %bb1, !dbg !834

bb1:                                              ; preds = %start
  store i32 %_4.0, ptr %field48, align 4, !dbg !834
    #dbg_declare(ptr poison, !824, !DIExpression(), !835)
  %13 = call { i32, i1 } @llvm.smul.with.overflow.i32(i32 %b, i32 2), !dbg !836
  %_6.0 = extractvalue { i32, i1 } %13, 0, !dbg !836
  %_6.1 = extractvalue { i32, i1 } %13, 1, !dbg !836
  br i1 %_6.1, label %panic1, label %bb2, !dbg !836

panic:                                            ; preds = %start
; call core::panicking::panic_const::panic_const_add_overflow
  call void @_RNvNtNtCsiJgtBcGlDou_4core9panicking11panic_const24panic_const_add_overflow(ptr align 8 @alloc_61fb8659a3f0d1224e43a21390cbc84a) #13, !dbg !834
  unreachable, !dbg !834

bb2:                                              ; preds = %bb1
  store i32 %_6.0, ptr %field57, align 4, !dbg !836
    #dbg_declare(ptr poison, !826, !DIExpression(), !837)
  %14 = call { i32, i1 } @llvm.sadd.with.overflow.i32(i32 %_4.0, i32 %_6.0), !dbg !838
  %_8.0 = extractvalue { i32, i1 } %14, 0, !dbg !838
  %_8.1 = extractvalue { i32, i1 } %14, 1, !dbg !838
  br i1 %_8.1, label %panic2, label %bb3, !dbg !838

panic1:                                           ; preds = %bb1
; call core::panicking::panic_const::panic_const_mul_overflow
  call void @_RNvNtNtCsiJgtBcGlDou_4core9panicking11panic_const24panic_const_mul_overflow(ptr align 8 @alloc_fd57f5203a86ee5fa607a9f133a89429) #13, !dbg !836
  unreachable, !dbg !836

bb3:                                              ; preds = %bb2
  store i32 %_8.0, ptr %field62, align 4, !dbg !838
    #dbg_declare(ptr poison, !828, !DIExpression(), !839)
  %15 = call { i32, i1 } @llvm.ssub.with.overflow.i32(i32 %_8.0, i32 5), !dbg !840
  %_9.0 = extractvalue { i32, i1 } %15, 0, !dbg !840
  %_9.1 = extractvalue { i32, i1 } %15, 1, !dbg !840
  br i1 %_9.1, label %panic3, label %bb4, !dbg !840

panic2:                                           ; preds = %bb2
; call core::panicking::panic_const::panic_const_add_overflow
  call void @_RNvNtNtCsiJgtBcGlDou_4core9panicking11panic_const24panic_const_add_overflow(ptr align 8 @alloc_e8778db7d1e3a5a84315a20e11e576c2) #13, !dbg !838
  unreachable, !dbg !838

bb4:                                              ; preds = %bb3
  store i32 %_9.0, ptr %field69, align 4, !dbg !840
    #dbg_declare(ptr poison, !830, !DIExpression(), !841)
; call alias_access_test::set_sink
  call void @_RNvCs9dAga0YNYgM_17alias_access_test8set_sink(i32 %_9.0) #15, !dbg !842
  ret i32 %_9.0, !dbg !843

panic3:                                           ; preds = %bb3
; call core::panicking::panic_const::panic_const_sub_overflow
  call void @_RNvNtNtCsiJgtBcGlDou_4core9panicking11panic_const24panic_const_sub_overflow(ptr align 8 @alloc_83a4129f8165f453a419f63ccad6d0bd) #13, !dbg !840
  unreachable, !dbg !840
}

; alias_access_test::test_bitwise_locals
; Function Attrs: noinline nonlazybind uwtable
define internal i32 @_RNvCs9dAga0YNYgM_17alias_access_test19test_bitwise_locals(i32 %a, i32 %b) unnamed_addr #2 !dbg !844 {
start:
  %raw_box = alloca %amice.alias.st.66, align 8
  %raw_box1 = alloca %amice.alias.st.67, align 8
  %raw_box2 = alloca %amice.alias.st.68, align 8
  %raw_box3 = alloca %amice.alias.st.69, align 8
  %raw_box4 = alloca %amice.alias.st.70, align 8
  %raw_box5 = alloca %amice.alias.st.71, align 8
  %0 = alloca { ptr, ptr, ptr, ptr, ptr, ptr }, align 8
  %1 = alloca { ptr, ptr, ptr, ptr, ptr, ptr }, align 8
  %slot = getelementptr inbounds nuw { ptr, ptr, ptr, ptr, ptr, ptr }, ptr %1, i32 0, i32 0
  store ptr %raw_box5, ptr %slot, align 8
  %2 = alloca { ptr, ptr, ptr, ptr, ptr, ptr }, align 8
  %slot6 = getelementptr inbounds nuw { ptr, ptr, ptr, ptr, ptr, ptr }, ptr %2, i32 0, i32 3
  store ptr %raw_box1, ptr %slot6, align 8
  %slot7 = getelementptr inbounds nuw { ptr, ptr, ptr, ptr, ptr, ptr }, ptr %2, i32 0, i32 2
  store ptr %raw_box, ptr %slot7, align 8
  %3 = alloca { ptr, ptr, ptr, ptr, ptr, ptr }, align 8
  %slot8 = getelementptr inbounds nuw { ptr, ptr, ptr, ptr, ptr, ptr }, ptr %3, i32 0, i32 1
  store ptr %raw_box, ptr %slot8, align 8
  %slot9 = getelementptr inbounds nuw { ptr, ptr, ptr, ptr, ptr, ptr }, ptr %3, i32 0, i32 4
  store ptr %0, ptr %slot9, align 8
  %slot10 = getelementptr inbounds nuw { ptr, ptr, ptr, ptr, ptr, ptr }, ptr %3, i32 0, i32 3
  store ptr %2, ptr %slot10, align 8
  %slot11 = getelementptr inbounds nuw { ptr, ptr, ptr, ptr, ptr, ptr }, ptr %3, i32 0, i32 0
  store ptr %raw_box4, ptr %slot11, align 8
  %4 = alloca { ptr, ptr, ptr, ptr, ptr, ptr }, align 8
  %slot12 = getelementptr inbounds nuw { ptr, ptr, ptr, ptr, ptr, ptr }, ptr %4, i32 0, i32 4
  store ptr %raw_box1, ptr %slot12, align 8
  %slot13 = getelementptr inbounds nuw { ptr, ptr, ptr, ptr, ptr, ptr }, ptr %4, i32 0, i32 2
  store ptr %0, ptr %slot13, align 8
  %slot14 = getelementptr inbounds nuw { ptr, ptr, ptr, ptr, ptr, ptr }, ptr %4, i32 0, i32 1
  store ptr %raw_box2, ptr %slot14, align 8
  %5 = alloca { ptr, ptr, ptr, ptr, ptr, ptr }, align 8
  %6 = alloca { ptr, ptr, ptr, ptr, ptr, ptr }, align 8
  %slot15 = getelementptr inbounds nuw { ptr, ptr, ptr, ptr, ptr, ptr }, ptr %6, i32 0, i32 3
  store ptr %0, ptr %slot15, align 8
  %slot16 = getelementptr inbounds nuw { ptr, ptr, ptr, ptr, ptr, ptr }, ptr %6, i32 0, i32 5
  store ptr %5, ptr %slot16, align 8
  %slot17 = getelementptr inbounds nuw { ptr, ptr, ptr, ptr, ptr, ptr }, ptr %6, i32 0, i32 0
  store ptr %4, ptr %slot17, align 8
  %slot18 = getelementptr inbounds nuw { ptr, ptr, ptr, ptr, ptr, ptr }, ptr %6, i32 0, i32 1
  store ptr %raw_box3, ptr %slot18, align 8
  %7 = alloca { ptr, ptr, ptr, ptr, ptr, ptr }, align 8
  %slot19 = getelementptr inbounds nuw { ptr, ptr, ptr, ptr, ptr, ptr }, ptr %7, i32 0, i32 1
  store ptr %raw_box5, ptr %slot19, align 8
  %slot20 = getelementptr inbounds nuw { ptr, ptr, ptr, ptr, ptr, ptr }, ptr %7, i32 0, i32 0
  store ptr %5, ptr %slot20, align 8
  %slot21 = getelementptr inbounds nuw { ptr, ptr, ptr, ptr, ptr, ptr }, ptr %7, i32 0, i32 5
  store ptr %2, ptr %slot21, align 8
  %slot22 = getelementptr inbounds nuw { ptr, ptr, ptr, ptr, ptr, ptr }, ptr %7, i32 0, i32 4
  store ptr %2, ptr %slot22, align 8
  %slot23 = getelementptr inbounds nuw { ptr, ptr, ptr, ptr, ptr, ptr }, ptr %7, i32 0, i32 3
  store ptr %raw_box4, ptr %slot23, align 8
  %8 = alloca { ptr, ptr, ptr, ptr, ptr, ptr }, align 8
  %9 = alloca { ptr, ptr, ptr, ptr, ptr, ptr }, align 8
  %slot24 = getelementptr inbounds nuw { ptr, ptr, ptr, ptr, ptr, ptr }, ptr %9, i32 0, i32 5
  store ptr %raw_box, ptr %slot24, align 8
  %slot25 = getelementptr inbounds nuw { ptr, ptr, ptr, ptr, ptr, ptr }, ptr %9, i32 0, i32 1
  store ptr %3, ptr %slot25, align 8
  %10 = alloca { ptr, ptr, ptr, ptr, ptr, ptr }, align 8
  %slot26 = getelementptr inbounds nuw { ptr, ptr, ptr, ptr, ptr, ptr }, ptr %10, i32 0, i32 5
  store ptr %3, ptr %slot26, align 8
  %slot27 = getelementptr inbounds nuw { ptr, ptr, ptr, ptr, ptr, ptr }, ptr %10, i32 0, i32 2
  store ptr %raw_box4, ptr %slot27, align 8
  %slot28 = getelementptr inbounds nuw { ptr, ptr, ptr, ptr, ptr, ptr }, ptr %10, i32 0, i32 3
  store ptr %4, ptr %slot28, align 8
  %slot29 = getelementptr inbounds nuw { ptr, ptr, ptr, ptr, ptr, ptr }, ptr %10, i32 0, i32 1
  store ptr %0, ptr %slot29, align 8
  %11 = alloca { ptr, ptr, ptr, ptr, ptr, ptr }, align 8
  %slot30 = getelementptr inbounds nuw { ptr, ptr, ptr, ptr, ptr, ptr }, ptr %11, i32 0, i32 4
  store ptr %5, ptr %slot30, align 8
  %slot31 = getelementptr inbounds nuw { ptr, ptr, ptr, ptr, ptr, ptr }, ptr %11, i32 0, i32 2
  store ptr %4, ptr %slot31, align 8
  %slot32 = getelementptr inbounds nuw { ptr, ptr, ptr, ptr, ptr, ptr }, ptr %11, i32 0, i32 5
  store ptr %8, ptr %slot32, align 8
  %12 = alloca { ptr, ptr, ptr, ptr, ptr, ptr }, align 8
  %slot33 = getelementptr inbounds nuw { ptr, ptr, ptr, ptr, ptr, ptr }, ptr %12, i32 0, i32 0
  store ptr %4, ptr %slot33, align 8
  %slot34 = getelementptr inbounds nuw { ptr, ptr, ptr, ptr, ptr, ptr }, ptr %12, i32 0, i32 3
  store ptr %raw_box3, ptr %slot34, align 8
  %13 = alloca { ptr, ptr, ptr, ptr, ptr, ptr }, align 8
  %14 = alloca { ptr, ptr, ptr, ptr, ptr, ptr }, align 8
  %slot35 = getelementptr inbounds nuw { ptr, ptr, ptr, ptr, ptr, ptr }, ptr %14, i32 0, i32 0
  store ptr %raw_box2, ptr %slot35, align 8
  %slot36 = getelementptr inbounds nuw { ptr, ptr, ptr, ptr, ptr, ptr }, ptr %14, i32 0, i32 3
  store ptr %2, ptr %slot36, align 8
  %15 = alloca { ptr, ptr, ptr, ptr, ptr, ptr }, align 8
  %slot37 = getelementptr inbounds nuw { ptr, ptr, ptr, ptr, ptr, ptr }, ptr %15, i32 0, i32 4
  store ptr %2, ptr %slot37, align 8
  %slot38 = getelementptr inbounds nuw { ptr, ptr, ptr, ptr, ptr, ptr }, ptr %15, i32 0, i32 2
  store ptr %0, ptr %slot38, align 8
  %slot39 = getelementptr inbounds nuw { ptr, ptr, ptr, ptr, ptr, ptr }, ptr %15, i32 0, i32 5
  store ptr %raw_box2, ptr %slot39, align 8
  %slot40 = getelementptr inbounds nuw { ptr, ptr, ptr, ptr, ptr, ptr }, ptr %15, i32 0, i32 3
  store ptr %raw_box3, ptr %slot40, align 8
  %16 = alloca { ptr, ptr, ptr, ptr, ptr, ptr }, align 8
  %slot41 = getelementptr inbounds nuw { ptr, ptr, ptr, ptr, ptr, ptr }, ptr %16, i32 0, i32 4
  store ptr %12, ptr %slot41, align 8
  %17 = alloca { ptr, ptr, ptr, ptr, ptr, ptr }, align 8
  %slot42 = getelementptr inbounds nuw { ptr, ptr, ptr, ptr, ptr, ptr }, ptr %17, i32 0, i32 4
  store ptr %10, ptr %slot42, align 8
  %slot43 = getelementptr inbounds nuw { ptr, ptr, ptr, ptr, ptr, ptr }, ptr %17, i32 0, i32 0
  store ptr %9, ptr %slot43, align 8
  %slot44 = getelementptr inbounds nuw { ptr, ptr, ptr, ptr, ptr, ptr }, ptr %17, i32 0, i32 3
  store ptr %13, ptr %slot44, align 8
  %slot45 = getelementptr inbounds nuw { ptr, ptr, ptr, ptr, ptr, ptr }, ptr %17, i32 0, i32 2
  store ptr %2, ptr %slot45, align 8
  %slot46 = getelementptr inbounds nuw { ptr, ptr, ptr, ptr, ptr, ptr }, ptr %17, i32 0, i32 1
  store ptr %15, ptr %slot46, align 8
  %field = getelementptr inbounds nuw %amice.alias.st.70, ptr %raw_box4, i32 0, i32 1
  %field47 = getelementptr inbounds nuw %amice.alias.st.70, ptr %raw_box4, i32 0, i32 0
  %callg = call ptr @anon.2cf0c1d40cc4e776c7c5e8652d40a35e.75(ptr %3)
  %ld_next = load ptr, ptr %callg, align 8
  %callg48 = call ptr @anon.2cf0c1d40cc4e776c7c5e8652d40a35e.75(ptr %ld_next)
  %ld_next49 = load ptr, ptr %callg48, align 8
  %field50 = getelementptr inbounds nuw %amice.alias.st.67, ptr %ld_next49, i32 0, i32 0
  %callg51 = call ptr @anon.2cf0c1d40cc4e776c7c5e8652d40a35e.76(ptr %7)
  %ld_next52 = load ptr, ptr %callg51, align 8
  %callg53 = call ptr @anon.2cf0c1d40cc4e776c7c5e8652d40a35e.77(ptr %ld_next52)
  %ld_next54 = load ptr, ptr %callg53, align 8
  %field55 = getelementptr inbounds nuw %amice.alias.st.66, ptr %ld_next54, i32 0, i32 0
  %callg56 = call ptr @anon.2cf0c1d40cc4e776c7c5e8652d40a35e.78(ptr %1)
  %ld_next57 = load ptr, ptr %callg56, align 8
  %field58 = getelementptr inbounds nuw %amice.alias.st.71, ptr %ld_next57, i32 0, i32 1
  %callg59 = call ptr @anon.2cf0c1d40cc4e776c7c5e8652d40a35e.79(ptr %6)
  %ld_next60 = load ptr, ptr %callg59, align 8
  %field61 = getelementptr inbounds nuw %amice.alias.st.69, ptr %ld_next60, i32 0, i32 0
  %field62 = getelementptr inbounds nuw %amice.alias.st.71, ptr %raw_box5, i32 0, i32 0
  %callg63 = call ptr @anon.2cf0c1d40cc4e776c7c5e8652d40a35e.78(ptr %14)
  %ld_next64 = load ptr, ptr %callg63, align 8
  %field65 = getelementptr inbounds nuw %amice.alias.st.68, ptr %ld_next64, i32 0, i32 0
  store i32 %a, ptr %field, align 4
    #dbg_declare(ptr poison, !846, !DIExpression(), !860)
  store i32 %b, ptr %field47, align 4
    #dbg_declare(ptr poison, !847, !DIExpression(), !861)
  %x = and i32 %a, 255, !dbg !862
  store i32 %x, ptr %field50, align 4, !dbg !862
    #dbg_declare(ptr poison, !848, !DIExpression(), !863)
  %y = or i32 %b, 15, !dbg !864
  store i32 %y, ptr %field55, align 4, !dbg !864
    #dbg_declare(ptr poison, !850, !DIExpression(), !865)
  %z = xor i32 %x, %y, !dbg !866
  store i32 %z, ptr %field58, align 4, !dbg !866
    #dbg_declare(ptr poison, !852, !DIExpression(), !867)
  %w = shl i32 %z, 2, !dbg !868
  store i32 %w, ptr %field61, align 4, !dbg !868
    #dbg_declare(ptr poison, !854, !DIExpression(), !869)
  %v = ashr i32 %w, 1, !dbg !870
  store i32 %v, ptr %field62, align 4, !dbg !870
    #dbg_declare(ptr poison, !856, !DIExpression(), !871)
  %_12 = and i32 %v, 65535, !dbg !872
  %_13 = or i32 %x, %y, !dbg !873
  %18 = call { i32, i1 } @llvm.sadd.with.overflow.i32(i32 %_12, i32 %_13), !dbg !872
  %_14.0 = extractvalue { i32, i1 } %18, 0, !dbg !872
  %_14.1 = extractvalue { i32, i1 } %18, 1, !dbg !872
  br i1 %_14.1, label %panic, label %bb3, !dbg !872

bb3:                                              ; preds = %start
  store i32 %_14.0, ptr %field65, align 4, !dbg !872
    #dbg_declare(ptr poison, !858, !DIExpression(), !874)
; call alias_access_test::set_sink
  call void @_RNvCs9dAga0YNYgM_17alias_access_test8set_sink(i32 %_14.0) #15, !dbg !875
  ret i32 %_14.0, !dbg !876

panic:                                            ; preds = %start
; call core::panicking::panic_const::panic_const_add_overflow
  call void @_RNvNtNtCsiJgtBcGlDou_4core9panicking11panic_const24panic_const_add_overflow(ptr align 8 @alloc_a075f3348245ad0f4c728ca4014f0b1d) #13, !dbg !872
  unreachable, !dbg !872
}

; alias_access_test::test_multiple_locals
; Function Attrs: noinline nonlazybind uwtable
define internal i32 @_RNvCs9dAga0YNYgM_17alias_access_test20test_multiple_locals(i32 %input) unnamed_addr #2 !dbg !877 {
start:
  %raw_box = alloca %amice.alias.st.72, align 8
  %raw_box8 = alloca %amice.alias.st.73, align 8
  %raw_box9 = alloca %amice.alias.st.74, align 8
  %raw_box10 = alloca %amice.alias.st.75, align 8
  %raw_box11 = alloca %amice.alias.st.76, align 8
  %raw_box12 = alloca %amice.alias.st.77, align 8
  %raw_box13 = alloca %amice.alias.st.78, align 8
  %0 = alloca { ptr, ptr, ptr, ptr, ptr, ptr }, align 8
  %1 = alloca { ptr, ptr, ptr, ptr, ptr, ptr }, align 8
  %slot = getelementptr inbounds nuw { ptr, ptr, ptr, ptr, ptr, ptr }, ptr %1, i32 0, i32 3
  store ptr %raw_box, ptr %slot, align 8
  %slot14 = getelementptr inbounds nuw { ptr, ptr, ptr, ptr, ptr, ptr }, ptr %1, i32 0, i32 2
  store ptr %0, ptr %slot14, align 8
  %slot15 = getelementptr inbounds nuw { ptr, ptr, ptr, ptr, ptr, ptr }, ptr %1, i32 0, i32 5
  store ptr %0, ptr %slot15, align 8
  %slot16 = getelementptr inbounds nuw { ptr, ptr, ptr, ptr, ptr, ptr }, ptr %1, i32 0, i32 1
  store ptr %raw_box8, ptr %slot16, align 8
  %slot17 = getelementptr inbounds nuw { ptr, ptr, ptr, ptr, ptr, ptr }, ptr %1, i32 0, i32 4
  store ptr %raw_box, ptr %slot17, align 8
  %2 = alloca { ptr, ptr, ptr, ptr, ptr, ptr }, align 8
  %slot18 = getelementptr inbounds nuw { ptr, ptr, ptr, ptr, ptr, ptr }, ptr %2, i32 0, i32 2
  store ptr %raw_box12, ptr %slot18, align 8
  %slot19 = getelementptr inbounds nuw { ptr, ptr, ptr, ptr, ptr, ptr }, ptr %2, i32 0, i32 4
  store ptr %raw_box8, ptr %slot19, align 8
  %3 = alloca { ptr, ptr, ptr, ptr, ptr, ptr }, align 8
  %slot20 = getelementptr inbounds nuw { ptr, ptr, ptr, ptr, ptr, ptr }, ptr %3, i32 0, i32 5
  store ptr %1, ptr %slot20, align 8
  %slot21 = getelementptr inbounds nuw { ptr, ptr, ptr, ptr, ptr, ptr }, ptr %3, i32 0, i32 0
  store ptr %1, ptr %slot21, align 8
  %4 = alloca { ptr, ptr, ptr, ptr, ptr, ptr }, align 8
  %slot22 = getelementptr inbounds nuw { ptr, ptr, ptr, ptr, ptr, ptr }, ptr %4, i32 0, i32 3
  store ptr %raw_box13, ptr %slot22, align 8
  %5 = alloca { ptr, ptr, ptr, ptr, ptr, ptr }, align 8
  %slot23 = getelementptr inbounds nuw { ptr, ptr, ptr, ptr, ptr, ptr }, ptr %5, i32 0, i32 4
  store ptr %4, ptr %slot23, align 8
  %slot24 = getelementptr inbounds nuw { ptr, ptr, ptr, ptr, ptr, ptr }, ptr %5, i32 0, i32 0
  store ptr %raw_box12, ptr %slot24, align 8
  %slot25 = getelementptr inbounds nuw { ptr, ptr, ptr, ptr, ptr, ptr }, ptr %5, i32 0, i32 2
  store ptr %raw_box, ptr %slot25, align 8
  %slot26 = getelementptr inbounds nuw { ptr, ptr, ptr, ptr, ptr, ptr }, ptr %5, i32 0, i32 1
  store ptr %raw_box11, ptr %slot26, align 8
  %6 = alloca { ptr, ptr, ptr, ptr, ptr, ptr }, align 8
  %7 = alloca { ptr, ptr, ptr, ptr, ptr, ptr }, align 8
  %8 = alloca { ptr, ptr, ptr, ptr, ptr, ptr }, align 8
  %slot27 = getelementptr inbounds nuw { ptr, ptr, ptr, ptr, ptr, ptr }, ptr %8, i32 0, i32 5
  store ptr %2, ptr %slot27, align 8
  %9 = alloca { ptr, ptr, ptr, ptr, ptr, ptr }, align 8
  %10 = alloca { ptr, ptr, ptr, ptr, ptr, ptr }, align 8
  %11 = alloca { ptr, ptr, ptr, ptr, ptr, ptr }, align 8
  %slot28 = getelementptr inbounds nuw { ptr, ptr, ptr, ptr, ptr, ptr }, ptr %11, i32 0, i32 2
  store ptr %raw_box8, ptr %slot28, align 8
  %12 = alloca { ptr, ptr, ptr, ptr, ptr, ptr }, align 8
  %slot29 = getelementptr inbounds nuw { ptr, ptr, ptr, ptr, ptr, ptr }, ptr %12, i32 0, i32 4
  store ptr %4, ptr %slot29, align 8
  %slot30 = getelementptr inbounds nuw { ptr, ptr, ptr, ptr, ptr, ptr }, ptr %12, i32 0, i32 0
  store ptr %7, ptr %slot30, align 8
  %13 = alloca { ptr, ptr, ptr, ptr, ptr, ptr }, align 8
  %slot31 = getelementptr inbounds nuw { ptr, ptr, ptr, ptr, ptr, ptr }, ptr %13, i32 0, i32 1
  store ptr %raw_box11, ptr %slot31, align 8
  %slot32 = getelementptr inbounds nuw { ptr, ptr, ptr, ptr, ptr, ptr }, ptr %13, i32 0, i32 5
  store ptr %3, ptr %slot32, align 8
  %slot33 = getelementptr inbounds nuw { ptr, ptr, ptr, ptr, ptr, ptr }, ptr %13, i32 0, i32 4
  store ptr %11, ptr %slot33, align 8
  %slot34 = getelementptr inbounds nuw { ptr, ptr, ptr, ptr, ptr, ptr }, ptr %13, i32 0, i32 0
  store ptr %11, ptr %slot34, align 8
  %slot35 = getelementptr inbounds nuw { ptr, ptr, ptr, ptr, ptr, ptr }, ptr %13, i32 0, i32 2
  store ptr %7, ptr %slot35, align 8
  %14 = alloca { ptr, ptr, ptr, ptr, ptr, ptr }, align 8
  %slot36 = getelementptr inbounds nuw { ptr, ptr, ptr, ptr, ptr, ptr }, ptr %14, i32 0, i32 3
  store ptr %13, ptr %slot36, align 8
  %slot37 = getelementptr inbounds nuw { ptr, ptr, ptr, ptr, ptr, ptr }, ptr %14, i32 0, i32 0
  store ptr %raw_box13, ptr %slot37, align 8
  %slot38 = getelementptr inbounds nuw { ptr, ptr, ptr, ptr, ptr, ptr }, ptr %14, i32 0, i32 1
  store ptr %13, ptr %slot38, align 8
  %15 = alloca { ptr, ptr, ptr, ptr, ptr, ptr }, align 8
  %slot39 = getelementptr inbounds nuw { ptr, ptr, ptr, ptr, ptr, ptr }, ptr %15, i32 0, i32 4
  store ptr %raw_box13, ptr %slot39, align 8
  %16 = alloca { ptr, ptr, ptr, ptr, ptr, ptr }, align 8
  %slot40 = getelementptr inbounds nuw { ptr, ptr, ptr, ptr, ptr, ptr }, ptr %16, i32 0, i32 5
  store ptr %raw_box, ptr %slot40, align 8
  %17 = alloca { ptr, ptr, ptr, ptr, ptr, ptr }, align 8
  %slot41 = getelementptr inbounds nuw { ptr, ptr, ptr, ptr, ptr, ptr }, ptr %17, i32 0, i32 1
  store ptr %raw_box12, ptr %slot41, align 8
  %slot42 = getelementptr inbounds nuw { ptr, ptr, ptr, ptr, ptr, ptr }, ptr %17, i32 0, i32 2
  store ptr %16, ptr %slot42, align 8
  %slot43 = getelementptr inbounds nuw { ptr, ptr, ptr, ptr, ptr, ptr }, ptr %17, i32 0, i32 4
  store ptr %5, ptr %slot43, align 8
  %slot44 = getelementptr inbounds nuw { ptr, ptr, ptr, ptr, ptr, ptr }, ptr %17, i32 0, i32 5
  store ptr %0, ptr %slot44, align 8
  %slot45 = getelementptr inbounds nuw { ptr, ptr, ptr, ptr, ptr, ptr }, ptr %17, i32 0, i32 0
  store ptr %7, ptr %slot45, align 8
  %18 = alloca { ptr, ptr, ptr, ptr, ptr, ptr }, align 8
  %slot46 = getelementptr inbounds nuw { ptr, ptr, ptr, ptr, ptr, ptr }, ptr %18, i32 0, i32 1
  store ptr %raw_box10, ptr %slot46, align 8
  %slot47 = getelementptr inbounds nuw { ptr, ptr, ptr, ptr, ptr, ptr }, ptr %18, i32 0, i32 5
  store ptr %3, ptr %slot47, align 8
  %slot48 = getelementptr inbounds nuw { ptr, ptr, ptr, ptr, ptr, ptr }, ptr %18, i32 0, i32 3
  store ptr %4, ptr %slot48, align 8
  %19 = alloca { ptr, ptr, ptr, ptr, ptr, ptr }, align 8
  %slot49 = getelementptr inbounds nuw { ptr, ptr, ptr, ptr, ptr, ptr }, ptr %19, i32 0, i32 3
  store ptr %raw_box10, ptr %slot49, align 8
  %slot50 = getelementptr inbounds nuw { ptr, ptr, ptr, ptr, ptr, ptr }, ptr %19, i32 0, i32 0
  store ptr %16, ptr %slot50, align 8
  %slot51 = getelementptr inbounds nuw { ptr, ptr, ptr, ptr, ptr, ptr }, ptr %19, i32 0, i32 5
  store ptr %10, ptr %slot51, align 8
  %20 = alloca { ptr, ptr, ptr, ptr, ptr, ptr }, align 8
  %slot52 = getelementptr inbounds nuw { ptr, ptr, ptr, ptr, ptr, ptr }, ptr %20, i32 0, i32 1
  store ptr %raw_box13, ptr %slot52, align 8
